---
triple:          'arm64-apple-darwin'
binary-path:     'demos/linear_regression_demo_gpp_dbg'
relocations:
  - { offset: 0x1AD95, size: 0x8, addend: 0x0, symName: __ZStL8__ioinit, symObjAddr: 0x116368, symBinAddr: 0x100030000, symSize: 0x0 }
  - { offset: 0x1ADD0, size: 0x8, addend: 0x0, symName: __ZN5Color6YellowE, symObjAddr: 0x19050, symBinAddr: 0x10002DBB0, symSize: 0x0 }
  - { offset: 0x1ADE0, size: 0x8, addend: 0x0, symName: __ZN5Color5WhiteE, symObjAddr: 0x19058, symBinAddr: 0x10002DBB8, symSize: 0x0 }
  - { offset: 0x1CBB5, size: 0x8, addend: 0x0, symName: __GLOBAL__sub_I_linear_regression_demo.cpp, symObjAddr: 0x19AEC, symBinAddr: 0x100017D2C, symSize: 0x14 }
  - { offset: 0x1CBCD, size: 0x8, addend: 0x0, symName: __Z41__static_initialization_and_destruction_0v, symObjAddr: 0x19AB0, symBinAddr: 0x100017CF0, symSize: 0x3C }
  - { offset: 0x1CBFB, size: 0x8, addend: 0x0, symName: __ZSt9__fill_a1IPmmEvT_S1_RKT0_, symObjAddr: 0x174F8, symBinAddr: 0x100017C90, symSize: 0x60 }
  - { offset: 0x1CCF1, size: 0x8, addend: 0x0, symName: __ZNSt4pairIKNSt7__cxx1112basic_stringIcSt11char_traitsIcESaIcEEES5_EC1ERKS7_, symObjAddr: 0x17498, symBinAddr: 0x100017C30, symSize: 0x60 }
  - { offset: 0x1CD3E, size: 0x8, addend: 0x0, symName: __ZNSt15__new_allocatorISt13_Rb_tree_nodeISt4pairIKNSt7__cxx1112basic_stringIcSt11char_traitsIcESaIcEEES7_EEE8allocateEmPKv, symObjAddr: 0x17408, symBinAddr: 0x100017BA0, symSize: 0x90 }
  - { offset: 0x1CF60, size: 0x8, addend: 0x0, symName: __ZSt14__copy_move_a2ILb0EPdS0_PeET2_T0_T1_S2_, symObjAddr: 0x172DC, symBinAddr: 0x100017A74, symSize: 0x12C }
  - { offset: 0x1D233, size: 0x8, addend: 0x0, symName: __ZN9__gnu_cxx16__aligned_membufISt4pairIKNSt7__cxx1112basic_stringIcSt11char_traitsIcESaIcEEES7_EE7_M_addrEv, symObjAddr: 0x172C8, symBinAddr: 0x100017A60, symSize: 0x14 }
  - { offset: 0x1D25D, size: 0x8, addend: 0x0, symName: __ZNSt8_Rb_treeINSt7__cxx1112basic_stringIcSt11char_traitsIcESaIcEEESt4pairIKS5_S5_ESt10_Select1stIS8_ESt4lessIS5_ESaIS8_EE17_M_construct_nodeIJRKS8_EEEvPSt13_Rb_tree_nodeIS8_EDpOT_, symObjAddr: 0x1716C, symBinAddr: 0x100017904, symSize: 0x15C }
  - { offset: 0x1D3D3, size: 0x8, addend: 0x0, symName: __ZNSt8_Rb_treeINSt7__cxx1112basic_stringIcSt11char_traitsIcESaIcEEESt4pairIKS5_S5_ESt10_Select1stIS8_ESt4lessIS5_ESaIS8_EE11_M_get_nodeEv, symObjAddr: 0x17130, symBinAddr: 0x1000178C8, symSize: 0x3C }
  - { offset: 0x1D617, size: 0x8, addend: 0x0, symName: __ZSt10_ConstructIdJEEvPT_DpOT0_, symObjAddr: 0x170E4, symBinAddr: 0x10001787C, symSize: 0x4C }
  - { offset: 0x1D68B, size: 0x8, addend: 0x0, symName: __ZNSt10_Head_baseILm3ESt6vectorIdSaIdEELb0EEC2IRS2_EEOT_, symObjAddr: 0x170B4, symBinAddr: 0x10001784C, symSize: 0x30 }
  - { offset: 0x1D79F, size: 0x8, addend: 0x0, symName: __ZSt10_ConstructImJEEvPT_DpOT0_, symObjAddr: 0x17068, symBinAddr: 0x100017800, symSize: 0x4C }
  - { offset: 0x1D813, size: 0x8, addend: 0x0, symName: __ZSt19__relocate_object_aINSt7__cxx1112basic_stringIcSt11char_traitsIcESaIcEEES5_SaIS5_EEvPT_PT0_RT1_, symObjAddr: 0x16F78, symBinAddr: 0x100017710, symSize: 0xF0 }
  - { offset: 0x1DA04, size: 0x8, addend: 0x0, symName: __ZNSt7__cxx1112basic_stringIcSt11char_traitsIcESaIcEE10_S_compareEmm, symObjAddr: 0x16F20, symBinAddr: 0x1000176B8, symSize: 0x58 }
  - { offset: 0x1DA54, size: 0x8, addend: 0x0, symName: __ZNSt15__new_allocatorISt13_Rb_tree_nodeISt4pairIKNSt7__cxx1112basic_stringIcSt11char_traitsIcESaIcEEES7_EEE10deallocateEPSA_m, symObjAddr: 0x16EE4, symBinAddr: 0x10001767C, symSize: 0x3C }
  - { offset: 0x1DACA, size: 0x8, addend: 0x0, symName: __ZN9__gnu_cxx16__aligned_membufISt4pairIKNSt7__cxx1112basic_stringIcSt11char_traitsIcESaIcEEES7_EE6_M_ptrEv, symObjAddr: 0x16EC8, symBinAddr: 0x100017660, symSize: 0x1C }
  - { offset: 0x1DAF4, size: 0x8, addend: 0x0, symName: __ZNSt8_Rb_treeINSt7__cxx1112basic_stringIcSt11char_traitsIcESaIcEEESt4pairIKS5_S5_ESt10_Select1stIS8_ESt4lessIS5_ESaIS8_EE14_M_create_nodeIJRKS8_EEEPSt13_Rb_tree_nodeIS8_EDpOT_, symObjAddr: 0x16E84, symBinAddr: 0x10001761C, symSize: 0x44 }
  - { offset: 0x1DB74, size: 0x8, addend: 0x0, symName: __ZSteqRKSt17_Rb_tree_iteratorISt4pairIKNSt7__cxx1112basic_stringIcSt11char_traitsIcESaIcEEES6_EESB_, symObjAddr: 0x16E54, symBinAddr: 0x1000175EC, symSize: 0x30 }
  - { offset: 0x1DBB3, size: 0x8, addend: 0x0, symName: __ZNSt8_Rb_treeINSt7__cxx1112basic_stringIcSt11char_traitsIcESaIcEEESt4pairIKS5_S5_ESt10_Select1stIS8_ESt4lessIS5_ESaIS8_EE5beginEv, symObjAddr: 0x16E2C, symBinAddr: 0x1000175C4, symSize: 0x28 }
  - { offset: 0x1DBDD, size: 0x8, addend: 0x0, symName: __ZNSt19_UninitDestroyGuardIPSt6vectorIeSaIeEEvE7releaseEv, symObjAddr: 0x16E10, symBinAddr: 0x1000175A8, symSize: 0x1C }
  - { offset: 0x1DC03, size: 0x8, addend: 0x0, symName: __ZSt10_ConstructISt6vectorIeSaIeEEJRKS2_EEvPT_DpOT0_, symObjAddr: 0x16D74, symBinAddr: 0x10001750C, symSize: 0x9C }
  - { offset: 0x1DC94, size: 0x8, addend: 0x0, symName: __ZNSt19_UninitDestroyGuardIPSt6vectorIeSaIeEEvED1Ev, symObjAddr: 0x16D1C, symBinAddr: 0x1000174B4, symSize: 0x58 }
  - { offset: 0x1DCE1, size: 0x8, addend: 0x0, symName: __ZNSt19_UninitDestroyGuardIPSt6vectorIeSaIeEEvEC1ERS3_, symObjAddr: 0x16CE8, symBinAddr: 0x100017480, symSize: 0x34 }
  - { offset: 0x1DD26, size: 0x8, addend: 0x0, symName: __ZNSt19_UninitDestroyGuardIPevE7releaseEv, symObjAddr: 0x16CCC, symBinAddr: 0x100017464, symSize: 0x1C }
  - { offset: 0x1DD4C, size: 0x8, addend: 0x0, symName: __ZSt10_ConstructIeJRKeEEvPT_DpOT0_, symObjAddr: 0x16C6C, symBinAddr: 0x100017404, symSize: 0x60 }
  - { offset: 0x1DDFB, size: 0x8, addend: 0x0, symName: __ZNSt19_UninitDestroyGuardIPevED1Ev, symObjAddr: 0x16C14, symBinAddr: 0x1000173AC, symSize: 0x58 }
  - { offset: 0x1DE48, size: 0x8, addend: 0x0, symName: __ZNSt19_UninitDestroyGuardIPevEC1ERS0_, symObjAddr: 0x16BE0, symBinAddr: 0x100017378, symSize: 0x34 }
  - { offset: 0x1DE8D, size: 0x8, addend: 0x0, symName: __ZNSt19_UninitDestroyGuardIPdvE7releaseEv, symObjAddr: 0x16BC4, symBinAddr: 0x10001735C, symSize: 0x1C }
  - { offset: 0x1DEB3, size: 0x8, addend: 0x0, symName: __ZSt10_ConstructIdJRKdEEvPT_DpOT0_, symObjAddr: 0x16B64, symBinAddr: 0x1000172FC, symSize: 0x60 }
  - { offset: 0x1DF62, size: 0x8, addend: 0x0, symName: __ZNSt19_UninitDestroyGuardIPdvED1Ev, symObjAddr: 0x16B0C, symBinAddr: 0x1000172A4, symSize: 0x58 }
  - { offset: 0x1DFAF, size: 0x8, addend: 0x0, symName: __ZNSt19_UninitDestroyGuardIPdvEC1ERS0_, symObjAddr: 0x16AD8, symBinAddr: 0x100017270, symSize: 0x34 }
  - { offset: 0x1E012, size: 0x8, addend: 0x0, symName: __ZNSt15__new_allocatorIcE8allocateEmPKv, symObjAddr: 0x16A74, symBinAddr: 0x10001720C, symSize: 0x64 }
  - { offset: 0x1E084, size: 0x8, addend: 0x0, symName: __ZSt10_ConstructISt6vectorIdSaIdEEJRS2_EEvPT_DpOT0_, symObjAddr: 0x169D8, symBinAddr: 0x100017170, symSize: 0x9C }
  - { offset: 0x1E0F7, size: 0x8, addend: 0x0, symName: __ZSt14__copy_move_a2ILb0EPSt6vectorIdSaIdEES3_S3_ET2_T0_T1_S4_, symObjAddr: 0x1697C, symBinAddr: 0x100017114, symSize: 0x5C }
  - { offset: 0x1E1B3, size: 0x8, addend: 0x0, symName: __ZSt14__copy_move_a2ILb0EPKSt6vectorIdSaIdEES4_PS2_ET2_T0_T1_S6_, symObjAddr: 0x16920, symBinAddr: 0x1000170B8, symSize: 0x5C }
  - { offset: 0x1E24B, size: 0x8, addend: 0x0, symName: __ZSt14__relocate_a_1ImmENSt9enable_ifIXsrSt24__is_bitwise_relocatableIT_vE5valueEPS2_E4typeES4_S4_S4_RSaIT0_E, symObjAddr: 0x168BC, symBinAddr: 0x100017054, symSize: 0x64 }
  - { offset: 0x1E2CF, size: 0x8, addend: 0x0, symName: __ZNSt15__new_allocatorImE8allocateEmPKv, symObjAddr: 0x16840, symBinAddr: 0x100016FD8, symSize: 0x7C }
  - { offset: 0x1E345, size: 0x8, addend: 0x0, symName: __ZNSt15__new_allocatorIeE8allocateEmPKv, symObjAddr: 0x167C4, symBinAddr: 0x100016F5C, symSize: 0x7C }
  - { offset: 0x1E3B7, size: 0x8, addend: 0x0, symName: __ZSt14__copy_move_a2ILb0EPdS0_S0_ET2_T0_T1_S1_, symObjAddr: 0x16698, symBinAddr: 0x100016E30, symSize: 0x12C }
  - { offset: 0x1E55B, size: 0x8, addend: 0x0, symName: __ZSt14__copy_move_a2ILb0EPKdS1_PdET2_T0_T1_S3_, symObjAddr: 0x1656C, symBinAddr: 0x100016D04, symSize: 0x12C }
  - { offset: 0x1E6DB, size: 0x8, addend: 0x0, symName: __ZNSt14_Function_base13_Base_managerIZN16LinearRegression3fitERKSt6vectorIS2_IdSaIdEESaIS4_EERKS4_mbEUlS8_PKmSC_RK12LinearParamsRSD_E_E9_M_createIRKSH_EEvRSt9_Any_dataOT_St17integral_constantIbLb0EE, symObjAddr: 0x164E8, symBinAddr: 0x100016C80, symSize: 0x84 }
  - { offset: 0x1E7B1, size: 0x8, addend: 0x0, symName: __ZSt18uninitialized_copyIN9__gnu_cxx17__normal_iteratorIPdSt6vectorIdSaIdEEEEPeET0_T_S9_S8_, symObjAddr: 0x16450, symBinAddr: 0x100016BE8, symSize: 0x98 }
  - { offset: 0x1E91C, size: 0x8, addend: 0x0, symName: __ZSt9__advanceIN9__gnu_cxx17__normal_iteratorIPdSt6vectorIdSaIdEEEElEvRT_T0_St26random_access_iterator_tag, symObjAddr: 0x16408, symBinAddr: 0x100016BA0, symSize: 0x48 }
  - { offset: 0x1E9EA, size: 0x8, addend: 0x0, symName: __ZSt12__miter_baseIN9__gnu_cxx17__normal_iteratorIPdSt6vectorIdSaIdEEEEET_S7_, symObjAddr: 0x163F4, symBinAddr: 0x100016B8C, symSize: 0x14 }
  - { offset: 0x1EA21, size: 0x8, addend: 0x0, symName: __ZNSt19_UninitDestroyGuardIPSt6vectorIdSaIdEEvE7releaseEv, symObjAddr: 0x163D8, symBinAddr: 0x100016B70, symSize: 0x1C }
  - { offset: 0x1EA47, size: 0x8, addend: 0x0, symName: __ZSt10_ConstructISt6vectorIdSaIdEEJRKS2_EEvPT_DpOT0_, symObjAddr: 0x1633C, symBinAddr: 0x100016AD4, symSize: 0x9C }
  - { offset: 0x1EAD8, size: 0x8, addend: 0x0, symName: __ZNSt19_UninitDestroyGuardIPSt6vectorIdSaIdEEvED1Ev, symObjAddr: 0x162E4, symBinAddr: 0x100016A7C, symSize: 0x58 }
  - { offset: 0x1EB25, size: 0x8, addend: 0x0, symName: __ZNSt19_UninitDestroyGuardIPSt6vectorIdSaIdEEvEC1ERS3_, symObjAddr: 0x162B0, symBinAddr: 0x100016A48, symSize: 0x34 }
  - { offset: 0x1EB50, size: 0x8, addend: 0x0, symName: __ZNSt27__uninitialized_default_n_1ILb1EE18__uninit_default_nIPdmEET_S3_T0_, symObjAddr: 0x161BC, symBinAddr: 0x100016954, symSize: 0xF4 }
  - { offset: 0x1ECF1, size: 0x8, addend: 0x0, symName: __ZNSt10_Head_baseILm2ESt6vectorIdSaIdEELb0EEC2IRS2_EEOT_, symObjAddr: 0x1618C, symBinAddr: 0x100016924, symSize: 0x30 }
  - { offset: 0x1ED7D, size: 0x8, addend: 0x0, symName: __ZNSt11_Tuple_implILm3EJSt6vectorIdSaIdEEEEC2IRS2_EEOT_, symObjAddr: 0x1615C, symBinAddr: 0x1000168F4, symSize: 0x30 }
  - { offset: 0x1EDD9, size: 0x8, addend: 0x0, symName: __ZNSt19_UninitDestroyGuardIPZ8split_xyRKSt6vectorIS0_IdSaIdEESaIS2_EERKS2_djE6SamplevE7releaseEv, symObjAddr: 0x16140, symBinAddr: 0x1000168D8, symSize: 0x1C }
  - { offset: 0x1EDFF, size: 0x8, addend: 0x0, symName: __ZSt10_ConstructIZ8split_xyRKSt6vectorIS0_IdSaIdEESaIS2_EERKS2_djE6SampleJRKS9_EEvPT_DpOT0_, symObjAddr: 0x160A4, symBinAddr: 0x10001683C, symSize: 0x9C }
  - { offset: 0x1EEF8, size: 0x8, addend: 0x0, symName: __ZNSt19_UninitDestroyGuardIPZ8split_xyRKSt6vectorIS0_IdSaIdEESaIS2_EERKS2_djE6SamplevED1Ev, symObjAddr: 0x1604C, symBinAddr: 0x1000167E4, symSize: 0x58 }
  - { offset: 0x1EF45, size: 0x8, addend: 0x0, symName: __ZNSt19_UninitDestroyGuardIPZ8split_xyRKSt6vectorIS0_IdSaIdEESaIS2_EERKS2_djE6SamplevEC1ERSA_, symObjAddr: 0x16018, symBinAddr: 0x1000167B0, symSize: 0x34 }
  - { offset: 0x1EFC1, size: 0x8, addend: 0x0, symName: __ZSt19__relocate_object_aIZ8split_xyRKSt6vectorIS0_IdSaIdEESaIS2_EERKS2_djE6SampleS9_SaIS9_EEvPT_PT0_RT1_, symObjAddr: 0x15F28, symBinAddr: 0x1000166C0, symSize: 0xF0 }
  - { offset: 0x1F1E7, size: 0x8, addend: 0x0, symName: __ZSt19__relocate_object_aISt6vectorIdSaIdEES2_SaIS2_EEvPT_PT0_RT1_, symObjAddr: 0x15E38, symBinAddr: 0x1000165D0, symSize: 0xF0 }
  - { offset: 0x1F3C2, size: 0x8, addend: 0x0, symName: __ZNSt27__uninitialized_default_n_1ILb1EE18__uninit_default_nIPmmEET_S3_T0_, symObjAddr: 0x15D44, symBinAddr: 0x1000164DC, symSize: 0xF4 }
  - { offset: 0x1F545, size: 0x8, addend: 0x0, symName: __ZSt14__relocate_a_1IPNSt7__cxx1112basic_stringIcSt11char_traitsIcESaIcEEES6_SaIS5_EET0_T_S9_S8_RT1_, symObjAddr: 0x15CCC, symBinAddr: 0x100016464, symSize: 0x78 }
  - { offset: 0x1F639, size: 0x8, addend: 0x0, symName: __ZNSt15__new_allocatorINSt7__cxx1112basic_stringIcSt11char_traitsIcESaIcEEEE8allocateEmPKv, symObjAddr: 0x15C50, symBinAddr: 0x1000163E8, symSize: 0x7C }
  - { offset: 0x1F6AF, size: 0x8, addend: 0x0, symName: __ZNKSt12_Vector_baseINSt7__cxx1112basic_stringIcSt11char_traitsIcESaIcEEESaIS5_EE19_M_get_Tp_allocatorEv, symObjAddr: 0x15C3C, symBinAddr: 0x1000163D4, symSize: 0x14 }
  - { offset: 0x1F6D5, size: 0x8, addend: 0x0, symName: __ZNSt6vectorINSt7__cxx1112basic_stringIcSt11char_traitsIcESaIcEEESaIS5_EE11_S_max_sizeERKS6_, symObjAddr: 0x15BE8, symBinAddr: 0x100016380, symSize: 0x54 }
  - { offset: 0x1F790, size: 0x8, addend: 0x0, symName: __ZNSt7__cxx1112basic_stringIcSt11char_traitsIcESaIcEE12_M_constructILb1EEEvPKcm, symObjAddr: 0x15B48, symBinAddr: 0x1000162E0, symSize: 0xA0 }
  - { offset: 0x1F80A, size: 0x8, addend: 0x0, symName: __ZNKSt7__cxx1112basic_stringIcSt11char_traitsIcESaIcEE7compareERKS4_, symObjAddr: 0x15AB4, symBinAddr: 0x10001624C, symSize: 0x94 }
  - { offset: 0x1F8E8, size: 0x8, addend: 0x0, symName: __ZNSt13_Rb_tree_nodeISt4pairIKNSt7__cxx1112basic_stringIcSt11char_traitsIcESaIcEEES6_EE9_M_valptrEv, symObjAddr: 0x15A94, symBinAddr: 0x10001622C, symSize: 0x20 }
  - { offset: 0x1F912, size: 0x8, addend: 0x0, symName: __ZNSt8_Rb_treeINSt7__cxx1112basic_stringIcSt11char_traitsIcESaIcEEESt4pairIKS5_S5_ESt10_Select1stIS8_ESt4lessIS5_ESaIS8_EE21_M_get_Node_allocatorEv, symObjAddr: 0x15A80, symBinAddr: 0x100016218, symSize: 0x14 }
  - { offset: 0x1F938, size: 0x8, addend: 0x0, symName: __ZNSt9__rb_tree12_Node_traitsISt4pairIKNSt7__cxx1112basic_stringIcSt11char_traitsIcESaIcEEES7_EPS9_E23_S_insert_and_rebalanceEbPSt18_Rb_tree_node_baseSD_RSC_, symObjAddr: 0x15A48, symBinAddr: 0x1000161E0, symSize: 0x38 }
  - { offset: 0x1F9A4, size: 0x8, addend: 0x0, symName: __ZNKSt8_Rb_treeINSt7__cxx1112basic_stringIcSt11char_traitsIcESaIcEEESt4pairIKS5_S5_ESt10_Select1stIS8_ESt4lessIS5_ESaIS8_EE11_Alloc_nodeclIRKS8_EEPSt13_Rb_tree_nodeIS8_EOT_, symObjAddr: 0x15A18, symBinAddr: 0x1000161B0, symSize: 0x30 }
  - { offset: 0x1FA0C, size: 0x8, addend: 0x0, symName: __ZNSt17_Rb_tree_iteratorISt4pairIKNSt7__cxx1112basic_stringIcSt11char_traitsIcESaIcEEES6_EEppEv, symObjAddr: 0x159E8, symBinAddr: 0x100016180, symSize: 0x30 }
  - { offset: 0x1FA36, size: 0x8, addend: 0x0, symName: __ZNSt17_Rb_tree_iteratorISt4pairIKNSt7__cxx1112basic_stringIcSt11char_traitsIcESaIcEEES6_EEmmEv, symObjAddr: 0x159B8, symBinAddr: 0x100016150, symSize: 0x30 }
  - { offset: 0x1FA60, size: 0x8, addend: 0x0, symName: __ZNSt8_Rb_treeINSt7__cxx1112basic_stringIcSt11char_traitsIcESaIcEEESt4pairIKS5_S5_ESt10_Select1stIS8_ESt4lessIS5_ESaIS8_EE11_M_leftmostEv, symObjAddr: 0x159A0, symBinAddr: 0x100016138, symSize: 0x18 }
  - { offset: 0x1FA8A, size: 0x8, addend: 0x0, symName: __ZNSt8_Rb_treeINSt7__cxx1112basic_stringIcSt11char_traitsIcESaIcEEESt4pairIKS5_S5_ESt10_Select1stIS8_ESt4lessIS5_ESaIS8_EE24_M_get_insert_unique_posERS7_, symObjAddr: 0x15848, symBinAddr: 0x100015FE0, symSize: 0x158 }
  - { offset: 0x1FB0E, size: 0x8, addend: 0x0, symName: __ZNSt8_Rb_treeINSt7__cxx1112basic_stringIcSt11char_traitsIcESaIcEEESt4pairIKS5_S5_ESt10_Select1stIS8_ESt4lessIS5_ESaIS8_EE12_M_rightmostEv, symObjAddr: 0x15830, symBinAddr: 0x100015FC8, symSize: 0x18 }
  - { offset: 0x1FB38, size: 0x8, addend: 0x0, symName: __ZNKSt8_Rb_treeINSt7__cxx1112basic_stringIcSt11char_traitsIcESaIcEEESt4pairIKS5_S5_ESt10_Select1stIS8_ESt4lessIS5_ESaIS8_EE4sizeEv, symObjAddr: 0x15818, symBinAddr: 0x100015FB0, symSize: 0x18 }
  - { offset: 0x1FB7D, size: 0x8, addend: 0x0, symName: __ZNSt15__new_allocatorISt6vectorIeSaIeEEE8allocateEmPKv, symObjAddr: 0x15788, symBinAddr: 0x100015F20, symSize: 0x90 }
  - { offset: 0x1FBEF, size: 0x8, addend: 0x0, symName: __ZSt18__do_uninit_fill_nIPSt6vectorIeSaIeEEmS2_ET_S4_T0_RKT1_, symObjAddr: 0x156E0, symBinAddr: 0x100015E78, symSize: 0xA8 }
  - { offset: 0x1FCBC, size: 0x8, addend: 0x0, symName: __ZSt18__do_uninit_fill_nIPemeET_S1_T0_RKT1_, symObjAddr: 0x15650, symBinAddr: 0x100015DE8, symSize: 0x90 }
  - { offset: 0x1FD89, size: 0x8, addend: 0x0, symName: __ZSt18__do_uninit_fill_nIPSt6vectorIdSaIdEEmS2_ET_S4_T0_RKT1_, symObjAddr: 0x155A8, symBinAddr: 0x100015D40, symSize: 0xA8 }
  - { offset: 0x1FE56, size: 0x8, addend: 0x0, symName: __ZSt18__do_uninit_fill_nIPdmdET_S1_T0_RKT1_, symObjAddr: 0x15518, symBinAddr: 0x100015CB0, symSize: 0x90 }
  - { offset: 0x1FF80, size: 0x8, addend: 0x0, symName: __ZNSt7__cxx1112basic_stringIcSt11char_traitsIcESaIcEE9_M_mutateEmmPKcm, symObjAddr: 0x153C0, symBinAddr: 0x100015B58, symSize: 0x158 }
  - { offset: 0x2007A, size: 0x8, addend: 0x0, symName: __ZNSt15__new_allocatorIcE10deallocateEPcm, symObjAddr: 0x15398, symBinAddr: 0x100015B30, symSize: 0x28 }
  - { offset: 0x200DE, size: 0x8, addend: 0x0, symName: __ZSt16__do_uninit_copyIPSt6vectorIdSaIdEES3_S3_ET1_T_T0_S4_, symObjAddr: 0x152F8, symBinAddr: 0x100015A90, symSize: 0xA0 }
  - { offset: 0x201E7, size: 0x8, addend: 0x0, symName: __ZSt12__niter_wrapIN9__gnu_cxx17__normal_iteratorIPSt6vectorIdSaIdEES2_IS4_SaIS4_EEEES5_ET_S9_T0_, symObjAddr: 0x15280, symBinAddr: 0x100015A18, symSize: 0x78 }
  - { offset: 0x2038C, size: 0x8, addend: 0x0, symName: __ZSt12__relocate_aIPmS0_SaImEET0_T_S3_S2_RT1_, symObjAddr: 0x15234, symBinAddr: 0x1000159CC, symSize: 0x4C }
  - { offset: 0x20498, size: 0x8, addend: 0x0, symName: __ZNSt15__new_allocatorImE10deallocateEPmm, symObjAddr: 0x15204, symBinAddr: 0x10001599C, symSize: 0x30 }
  - { offset: 0x205B7, size: 0x8, addend: 0x0, symName: __ZSt12__niter_wrapIN9__gnu_cxx17__normal_iteratorIPdSt6vectorIdSaIdEEEES2_ET_S7_T0_, symObjAddr: 0x151A4, symBinAddr: 0x10001593C, symSize: 0x60 }
  - { offset: 0x20734, size: 0x8, addend: 0x0, symName: __ZNSt14_Function_base13_Base_managerIZN16LinearRegression3fitERKSt6vectorIS2_IdSaIdEESaIS4_EERKS4_mbEUlS8_PKmSC_RK12LinearParamsRSD_E_E10_M_destroyERSt9_Any_dataSt17integral_constantIbLb0EE, symObjAddr: 0x1516C, symBinAddr: 0x100015904, symSize: 0x38 }
  - { offset: 0x20766, size: 0x8, addend: 0x0, symName: __ZNSt14_Function_base13_Base_managerIZN16LinearRegression3fitERKSt6vectorIS2_IdSaIdEESaIS4_EERKS4_mbEUlS8_PKmSC_RK12LinearParamsRSD_E_E15_M_init_functorIRKSH_EEvRSt9_Any_dataOT_, symObjAddr: 0x15138, symBinAddr: 0x1000158D0, symSize: 0x34 }
  - { offset: 0x207CB, size: 0x8, addend: 0x0, symName: __ZSt13__invoke_implIvRZN16LinearRegression3fitERKSt6vectorIS1_IdSaIdEESaIS3_EERKS3_mbEUlS7_PKmSB_RK12LinearParamsRSC_E_JS7_SB_SB_SE_SF_EET_St14__invoke_otherOT0_DpOT1_, symObjAddr: 0x150A4, symBinAddr: 0x10001583C, symSize: 0x94 }
  - { offset: 0x20942, size: 0x8, addend: 0x0, symName: __ZNKSt9_Any_data9_M_accessIPZN16LinearRegression3fitERKSt6vectorIS2_IdSaIdEESaIS4_EERKS4_mbEUlS8_PKmSC_RK12LinearParamsRSD_E_EERKT_v, symObjAddr: 0x15088, symBinAddr: 0x100015820, symSize: 0x1C }
  - { offset: 0x20975, size: 0x8, addend: 0x0, symName: __ZNKSt6vectorImSaImEE8max_sizeEv, symObjAddr: 0x15068, symBinAddr: 0x100015800, symSize: 0x20 }
  - { offset: 0x20A03, size: 0x8, addend: 0x0, symName: __ZSt22__uninitialized_copy_aIN9__gnu_cxx17__normal_iteratorIPdSt6vectorIdSaIdEEEES6_PeeET1_T_T0_S8_RSaIT2_E, symObjAddr: 0x15038, symBinAddr: 0x1000157D0, symSize: 0x30 }
  - { offset: 0x20ABD, size: 0x8, addend: 0x0, symName: __ZSt4copyIN9__gnu_cxx17__normal_iteratorIPdSt6vectorIdSaIdEEEEPeET0_T_S9_S8_, symObjAddr: 0x14F98, symBinAddr: 0x100015730, symSize: 0xA0 }
  - { offset: 0x20C68, size: 0x8, addend: 0x0, symName: __ZNSt6vectorIeSaIeEE20_M_allocate_and_copyIN9__gnu_cxx17__normal_iteratorIPdS_IdSaIdEEEEEEPemT_SA_, symObjAddr: 0x14EF4, symBinAddr: 0x10001568C, symSize: 0xA4 }
  - { offset: 0x20D0B, size: 0x8, addend: 0x0, symName: __ZSt16__do_uninit_copyIN9__gnu_cxx17__normal_iteratorIPKSt6vectorIdSaIdEES2_IS4_SaIS4_EEEES9_PS4_ET1_T_T0_SB_, symObjAddr: 0x14E28, symBinAddr: 0x1000155C0, symSize: 0xCC }
  - { offset: 0x20E51, size: 0x8, addend: 0x0, symName: __ZSt9__advanceIPKdlEvRT_T0_St26random_access_iterator_tag, symObjAddr: 0x14DF0, symBinAddr: 0x100015588, symSize: 0x38 }
  - { offset: 0x20EF3, size: 0x8, addend: 0x0, symName: __ZSt12__miter_baseIPKdET_S2_, symObjAddr: 0x14DDC, symBinAddr: 0x100015574, symSize: 0x14 }
  - { offset: 0x20F2A, size: 0x8, addend: 0x0, symName: __ZNSt12_Vector_baseIeSaIeEE17_Vector_impl_data12_M_copy_dataERKS2_, symObjAddr: 0x14D94, symBinAddr: 0x10001552C, symSize: 0x48 }
  - { offset: 0x20F8C, size: 0x8, addend: 0x0, symName: __ZNSt12_Vector_baseIeSaIeEEC2ERKS0_, symObjAddr: 0x14D6C, symBinAddr: 0x100015504, symSize: 0x28 }
  - { offset: 0x20FB7, size: 0x8, addend: 0x0, symName: __ZSt9__fill_a1IPddEvT_S1_RKT0_, symObjAddr: 0x14D0C, symBinAddr: 0x1000154A4, symSize: 0x60 }
  - { offset: 0x21044, size: 0x8, addend: 0x0, symName: __ZSt25__uninitialized_default_nIPdmET_S1_T0_, symObjAddr: 0x14CE0, symBinAddr: 0x100015478, symSize: 0x2C }
  - { offset: 0x210D6, size: 0x8, addend: 0x0, symName: __ZNSt10_Head_baseILm1ESt6vectorIS0_IdSaIdEESaIS2_EELb0EEC2IRS4_EEOT_, symObjAddr: 0x14CB0, symBinAddr: 0x100015448, symSize: 0x30 }
  - { offset: 0x2117D, size: 0x8, addend: 0x0, symName: __ZNSt11_Tuple_implILm2EJSt6vectorIdSaIdEES2_EEC2IRS2_JS5_EvEEOT_DpOT0_, symObjAddr: 0x14C48, symBinAddr: 0x1000153E0, symSize: 0x68 }
  - { offset: 0x21269, size: 0x8, addend: 0x0, symName: __Z8split_xyRKSt6vectorIS_IdSaIdEESaIS1_EERKS1_dj, symObjAddr: 0x3BE0, symBinAddr: 0x100004378, symSize: 0x32C }
  - { offset: 0x21348, size: 0x8, addend: 0x0, symName: __ZZ8split_xyRKSt6vectorIS_IdSaIdEESaIS1_EERKS1_djEN6SampleD1Ev, symObjAddr: 0x3A50, symBinAddr: 0x1000041E8, symSize: 0x20 }
  - { offset: 0x21372, size: 0x8, addend: 0x0, symName: __ZZ8split_xyRKSt6vectorIS_IdSaIdEESaIS1_EERKS1_djEN6SampleC1EOS8_, symObjAddr: 0x14954, symBinAddr: 0x1000150EC, symSize: 0x38 }
  - { offset: 0x213A5, size: 0x8, addend: 0x0, symName: __ZZ8split_xyRKSt6vectorIS_IdSaIdEESaIS1_EERKS1_djEN6SampleC1ERKS8_, symObjAddr: 0x14C10, symBinAddr: 0x1000153A8, symSize: 0x38 }
  - { offset: 0x21679, size: 0x8, addend: 0x0, symName: __ZSt16__do_uninit_copyIN9__gnu_cxx17__normal_iteratorIPKZ8split_xyRKSt6vectorIS2_IdSaIdEESaIS4_EERKS4_djE6SampleS2_ISB_SaISB_EEEESG_PSB_ET1_T_T0_SI_, symObjAddr: 0x14B44, symBinAddr: 0x1000152DC, symSize: 0xCC }
  - { offset: 0x2180A, size: 0x8, addend: 0x0, symName: __ZNKSt6vectorIZ8split_xyRKS_IS_IdSaIdEESaIS1_EERKS1_djE6SampleSaIS8_EE5emptyEv, symObjAddr: 0x14AEC, symBinAddr: 0x100015284, symSize: 0x58 }
  - { offset: 0x218DB, size: 0x8, addend: 0x0, symName: __ZNSt6vectorIZ8split_xyRKS_IS_IdSaIdEESaIS1_EERKS1_djE6SampleSaIS8_EE12_Guard_allocD1Ev, symObjAddr: 0x14AA0, symBinAddr: 0x100015238, symSize: 0x4C }
  - { offset: 0x21945, size: 0x8, addend: 0x0, symName: __ZNSt6vectorIZ8split_xyRKS_IS_IdSaIdEESaIS1_EERKS1_djE6SampleSaIS8_EE12_Guard_allocC1EPS8_mRSt12_Vector_baseIS8_S9_E, symObjAddr: 0x14A5C, symBinAddr: 0x1000151F4, symSize: 0x44 }
  - { offset: 0x219C2, size: 0x8, addend: 0x0, symName: __ZNKSt6vectorIZ8split_xyRKS_IS_IdSaIdEESaIS1_EERKS1_djE6SampleSaIS8_EE12_M_check_lenEmPKc, symObjAddr: 0x1498C, symBinAddr: 0x100015124, symSize: 0xD0 }
  - { offset: 0x21A90, size: 0x8, addend: 0x0, symName: __ZSt14__relocate_a_1IPZ8split_xyRKSt6vectorIS0_IdSaIdEESaIS2_EERKS2_djE6SampleSA_SaIS9_EET0_T_SD_SC_RT1_, symObjAddr: 0x148DC, symBinAddr: 0x100015074, symSize: 0x78 }
  - { offset: 0x21B84, size: 0x8, addend: 0x0, symName: __ZNSt15__new_allocatorIZ8split_xyRKSt6vectorIS0_IdSaIdEESaIS2_EERKS2_djE6SampleE8allocateEmPKv, symObjAddr: 0x14860, symBinAddr: 0x100014FF8, symSize: 0x7C }
  - { offset: 0x21C0C, size: 0x8, addend: 0x0, symName: __ZSt8_DestroyIZ8split_xyRKSt6vectorIS0_IdSaIdEESaIS2_EERKS2_djE6SampleEvPT_, symObjAddr: 0x14840, symBinAddr: 0x100014FD8, symSize: 0x20 }
  - { offset: 0x21C60, size: 0x8, addend: 0x0, symName: __ZNSt15__new_allocatorIZ8split_xyRKSt6vectorIS0_IdSaIdEESaIS2_EERKS2_djE6SampleE10deallocateEPS9_m, symObjAddr: 0x14810, symBinAddr: 0x100014FA8, symSize: 0x30 }
  - { offset: 0x21D10, size: 0x8, addend: 0x0, symName: __ZSt18uninitialized_copyIPKdPdET0_T_S4_S3_, symObjAddr: 0x14794, symBinAddr: 0x100014F2C, symSize: 0x7C }
  - { offset: 0x21DEA, size: 0x8, addend: 0x0, symName: __ZSt18generate_canonicalIdLm53ESt23mersenne_twister_engineIjLm32ELm624ELm397ELm31ELj2567483615ELm11ELj4294967295ELm7ELj2636928640ELm15ELj4022730752ELm18ELj1812433253EEET_RT1_, symObjAddr: 0x14650, symBinAddr: 0x100014DE8, symSize: 0x144 }
  - { offset: 0x21F21, size: 0x8, addend: 0x0, symName: __ZNSt7__cxx1112basic_stringIcSt11char_traitsIcESaIcEE9_M_appendEPKcm, symObjAddr: 0x14588, symBinAddr: 0x100014D20, symSize: 0xC8 }
  - { offset: 0x21F7E, size: 0x8, addend: 0x0, symName: __ZNKSt7__cxx1112basic_stringIcSt11char_traitsIcESaIcEE15_M_check_lengthEmmPKc, symObjAddr: 0x14514, symBinAddr: 0x100014CAC, symSize: 0x74 }
  - { offset: 0x21FF1, size: 0x8, addend: 0x0, symName: __ZNSt12_Vector_baseIdSaIdEE17_Vector_impl_data12_M_copy_dataERKS2_, symObjAddr: 0x144CC, symBinAddr: 0x100014C64, symSize: 0x48 }
  - { offset: 0x2202B, size: 0x8, addend: 0x0, symName: __ZNSt12_Vector_baseISt6vectorIdSaIdEESaIS2_EE17_Vector_impl_data12_M_copy_dataERKS5_, symObjAddr: 0x14484, symBinAddr: 0x100014C1C, symSize: 0x48 }
  - { offset: 0x2208D, size: 0x8, addend: 0x0, symName: __ZNSt12_Vector_baseISt6vectorIdSaIdEESaIS2_EEC2ERKS3_, symObjAddr: 0x1445C, symBinAddr: 0x100014BF4, symSize: 0x28 }
  - { offset: 0x220B8, size: 0x8, addend: 0x0, symName: __ZSt14__relocate_a_1IddENSt9enable_ifIXsrSt24__is_bitwise_relocatableIT_vE5valueEPS2_E4typeES4_S4_S4_RSaIT0_E, symObjAddr: 0x143F8, symBinAddr: 0x100014B90, symSize: 0x64 }
  - { offset: 0x2215B, size: 0x8, addend: 0x0, symName: __ZNSt15__new_allocatorIdE8allocateEmPKv, symObjAddr: 0x1437C, symBinAddr: 0x100014B14, symSize: 0x7C }
  - { offset: 0x221CD, size: 0x8, addend: 0x0, symName: __ZSt14__relocate_a_1IPSt6vectorIdSaIdEES3_SaIS2_EET0_T_S6_S5_RT1_, symObjAddr: 0x14304, symBinAddr: 0x100014A9C, symSize: 0x78 }
  - { offset: 0x222C1, size: 0x8, addend: 0x0, symName: __ZNSt15__new_allocatorISt6vectorIdSaIdEEE8allocateEmPKv, symObjAddr: 0x14274, symBinAddr: 0x100014A0C, symSize: 0x90 }
  - { offset: 0x22337, size: 0x8, addend: 0x0, symName: __ZNSt15__new_allocatorIdE10deallocateEPdm, symObjAddr: 0x14244, symBinAddr: 0x1000149DC, symSize: 0x30 }
  - { offset: 0x22385, size: 0x8, addend: 0x0, symName: __ZNSt23mersenne_twister_engineIjLm32ELm624ELm397ELm31ELj2567483615ELm11ELj4294967295ELm7ELj2636928640ELm15ELj4022730752ELm18ELj1812433253EE11_M_gen_randEv, symObjAddr: 0x14084, symBinAddr: 0x10001481C, symSize: 0x1C0 }
  - { offset: 0x224C1, size: 0x8, addend: 0x0, symName: __ZNSt4pairImmEC1ImmLb1EEEOT_OT0_, symObjAddr: 0x14038, symBinAddr: 0x1000147D0, symSize: 0x4C }
  - { offset: 0x22574, size: 0x8, addend: 0x0, symName: __ZNSt8__detail4_ModIjLj624ELj1ELj0ELb1ELb1EE6__calcEj, symObjAddr: 0x14000, symBinAddr: 0x100014798, symSize: 0x38 }
  - { offset: 0x225AD, size: 0x8, addend: 0x0, symName: __ZNSt8__detail4_ModIjLj0ELj1ELj0ELb1ELb0EE6__calcEj, symObjAddr: 0x13FE4, symBinAddr: 0x10001477C, symSize: 0x1C }
  - { offset: 0x225E6, size: 0x8, addend: 0x0, symName: __ZSt25__uninitialized_default_nIPmmET_S1_T0_, symObjAddr: 0x13FB8, symBinAddr: 0x100014750, symSize: 0x2C }
  - { offset: 0x22675, size: 0x8, addend: 0x0, symName: __ZSt12__relocate_aIPNSt7__cxx1112basic_stringIcSt11char_traitsIcESaIcEEES6_SaIS5_EET0_T_S9_S8_RT1_, symObjAddr: 0x13F6C, symBinAddr: 0x100014704, symSize: 0x4C }
  - { offset: 0x22781, size: 0x8, addend: 0x0, symName: __ZNKSt6vectorINSt7__cxx1112basic_stringIcSt11char_traitsIcESaIcEEESaIS5_EE8max_sizeEv, symObjAddr: 0x13F4C, symBinAddr: 0x1000146E4, symSize: 0x20 }
  - { offset: 0x227D3, size: 0x8, addend: 0x0, symName: __ZNSt7__cxx1112basic_stringIcSt11char_traitsIcESaIcEEC1ERKS4_, symObjAddr: 0x13E7C, symBinAddr: 0x100014614, symSize: 0xD0 }
  - { offset: 0x228C1, size: 0x8, addend: 0x0, symName: __ZSt8_DestroyINSt7__cxx1112basic_stringIcSt11char_traitsIcESaIcEEEEvPT_, symObjAddr: 0x13E5C, symBinAddr: 0x1000145F4, symSize: 0x20 }
  - { offset: 0x22915, size: 0x8, addend: 0x0, symName: __ZNSt15__new_allocatorINSt7__cxx1112basic_stringIcSt11char_traitsIcESaIcEEEE10deallocateEPS5_m, symObjAddr: 0x13E2C, symBinAddr: 0x1000145C4, symSize: 0x30 }
  - { offset: 0x22963, size: 0x8, addend: 0x0, symName: __ZNK9__gnu_cxx16__aligned_membufISt4pairIKNSt7__cxx1112basic_stringIcSt11char_traitsIcESaIcEEES7_EE7_M_addrEv, symObjAddr: 0x13E18, symBinAddr: 0x1000145B0, symSize: 0x14 }
  - { offset: 0x22989, size: 0x8, addend: 0x0, symName: __ZStltIcSt11char_traitsIcESaIcEEbRKNSt7__cxx1112basic_stringIT_T0_T1_EESA_, symObjAddr: 0x13DEC, symBinAddr: 0x100014584, symSize: 0x2C }
  - { offset: 0x229DF, size: 0x8, addend: 0x0, symName: __ZNSt8_Rb_treeINSt7__cxx1112basic_stringIcSt11char_traitsIcESaIcEEESt4pairIKS5_S5_ESt10_Select1stIS8_ESt4lessIS5_ESaIS8_EE6_S_keyERKSt13_Rb_tree_nodeIS8_E, symObjAddr: 0x13DC4, symBinAddr: 0x10001455C, symSize: 0x28 }
  - { offset: 0x22A09, size: 0x8, addend: 0x0, symName: __ZNSt8_Rb_treeINSt7__cxx1112basic_stringIcSt11char_traitsIcESaIcEEESt4pairIKS5_S5_ESt10_Select1stIS8_ESt4lessIS5_ESaIS8_EE8_S_rightEPSt18_Rb_tree_node_base, symObjAddr: 0x13DAC, symBinAddr: 0x100014544, symSize: 0x18 }
  - { offset: 0x22A33, size: 0x8, addend: 0x0, symName: __ZNSt8_Rb_treeINSt7__cxx1112basic_stringIcSt11char_traitsIcESaIcEEESt4pairIKS5_S5_ESt10_Select1stIS8_ESt4lessIS5_ESaIS8_EE7_S_leftEPSt18_Rb_tree_node_base, symObjAddr: 0x13D94, symBinAddr: 0x10001452C, symSize: 0x18 }
  - { offset: 0x22A61, size: 0x8, addend: 0x0, symName: __ZNSt8_Rb_treeINSt7__cxx1112basic_stringIcSt11char_traitsIcESaIcEEESt4pairIKS5_S5_ESt10_Select1stIS8_ESt4lessIS5_ESaIS8_EE11_M_put_nodeEPSt13_Rb_tree_nodeIS8_E, symObjAddr: 0x13D48, symBinAddr: 0x1000144E0, symSize: 0x4C }
  - { offset: 0x22AD2, size: 0x8, addend: 0x0, symName: __ZNSt8_Rb_treeINSt7__cxx1112basic_stringIcSt11char_traitsIcESaIcEEESt4pairIKS5_S5_ESt10_Select1stIS8_ESt4lessIS5_ESaIS8_EE15_M_destroy_nodeEPSt13_Rb_tree_nodeIS8_E, symObjAddr: 0x13CE8, symBinAddr: 0x100014480, symSize: 0x60 }
  - { offset: 0x22B6D, size: 0x8, addend: 0x0, symName: __ZNSt8_Rb_treeINSt7__cxx1112basic_stringIcSt11char_traitsIcESaIcEEESt4pairIKS5_S5_ESt10_Select1stIS8_ESt4lessIS5_ESaIS8_EE10_M_insert_IRKS8_NSE_11_Alloc_nodeEEESt17_Rb_tree_iteratorIS8_EPSt18_Rb_tree_node_baseSM_OT_RT0_, symObjAddr: 0x13BF0, symBinAddr: 0x100014388, symSize: 0xF8 }
  - { offset: 0x22C5A, size: 0x8, addend: 0x0, symName: __ZNKSt10_Select1stISt4pairIKNSt7__cxx1112basic_stringIcSt11char_traitsIcESaIcEEES6_EEclERKS8_, symObjAddr: 0x13BD8, symBinAddr: 0x100014370, symSize: 0x18 }
  - { offset: 0x22C95, size: 0x8, addend: 0x0, symName: __ZNSt8_Rb_treeINSt7__cxx1112basic_stringIcSt11char_traitsIcESaIcEEESt4pairIKS5_S5_ESt10_Select1stIS8_ESt4lessIS5_ESaIS8_EE29_M_get_insert_hint_unique_posESt23_Rb_tree_const_iteratorIS8_ERS7_, symObjAddr: 0x138B8, symBinAddr: 0x100014050, symSize: 0x320 }
  - { offset: 0x22D56, size: 0x8, addend: 0x0, symName: __ZNSt17_Rb_tree_iteratorISt4pairIKNSt7__cxx1112basic_stringIcSt11char_traitsIcESaIcEEES6_EEC1EPSt18_Rb_tree_node_base, symObjAddr: 0x13894, symBinAddr: 0x10001402C, symSize: 0x24 }
  - { offset: 0x22DAC, size: 0x8, addend: 0x0, symName: __ZNSt20_Rb_tree_key_compareISt4lessINSt7__cxx1112basic_stringIcSt11char_traitsIcESaIcEEEEEC2ERKS7_, symObjAddr: 0x1387C, symBinAddr: 0x100014014, symSize: 0x18 }
  - { offset: 0x22EA4, size: 0x8, addend: 0x0, symName: __ZNSt15__new_allocatorISt6vectorIeSaIeEEE10deallocateEPS2_m, symObjAddr: 0x13840, symBinAddr: 0x100013FD8, symSize: 0x3C }
  - { offset: 0x22EEA, size: 0x8, addend: 0x0, symName: __ZSt8_DestroyISt6vectorIeSaIeEEEvPT_, symObjAddr: 0x13820, symBinAddr: 0x100013FB8, symSize: 0x20 }
  - { offset: 0x22F3A, size: 0x8, addend: 0x0, symName: __ZSt20uninitialized_fill_nIPSt6vectorIeSaIeEEmS2_ET_S4_T0_RKT1_, symObjAddr: 0x137F4, symBinAddr: 0x100013F8C, symSize: 0x2C }
  - { offset: 0x22FBF, size: 0x8, addend: 0x0, symName: __ZNSt12_Vector_baseISt6vectorIeSaIeEESaIS2_EE17_Vector_impl_dataC2Ev, symObjAddr: 0x137C8, symBinAddr: 0x100013F60, symSize: 0x2C }
  - { offset: 0x22FFB, size: 0x8, addend: 0x0, symName: __ZNSt15__new_allocatorIeE10deallocateEPem, symObjAddr: 0x13798, symBinAddr: 0x100013F30, symSize: 0x30 }
  - { offset: 0x23041, size: 0x8, addend: 0x0, symName: __ZSt20uninitialized_fill_nIPemeET_S1_T0_RKT1_, symObjAddr: 0x1376C, symBinAddr: 0x100013F04, symSize: 0x2C }
  - { offset: 0x230C2, size: 0x8, addend: 0x0, symName: __ZNSt15__new_allocatorISt6vectorIdSaIdEEE10deallocateEPS2_m, symObjAddr: 0x13730, symBinAddr: 0x100013EC8, symSize: 0x3C }
  - { offset: 0x23108, size: 0x8, addend: 0x0, symName: __ZSt8_DestroyISt6vectorIdSaIdEEEvPT_, symObjAddr: 0x13710, symBinAddr: 0x100013EA8, symSize: 0x20 }
  - { offset: 0x23158, size: 0x8, addend: 0x0, symName: __ZSt20uninitialized_fill_nIPSt6vectorIdSaIdEEmS2_ET_S4_T0_RKT1_, symObjAddr: 0x136E4, symBinAddr: 0x100013E7C, symSize: 0x2C }
  - { offset: 0x231D5, size: 0x8, addend: 0x0, symName: __ZSt20uninitialized_fill_nIPdmdET_S1_T0_RKT1_, symObjAddr: 0x136B8, symBinAddr: 0x100013E50, symSize: 0x2C }
  - { offset: 0x2329E, size: 0x8, addend: 0x0, symName: __ZNSt4pairIPSt18_Rb_tree_node_baseS1_EC1IRS1_S1_Lb1EEEOT_OT0_, symObjAddr: 0x1366C, symBinAddr: 0x100013E04, symSize: 0x4C }
  - { offset: 0x23378, size: 0x8, addend: 0x0, symName: __ZNSt4pairIPSt18_Rb_tree_node_baseS1_EC1IRS1_S4_Lb1EEEOT_OT0_, symObjAddr: 0x13620, symBinAddr: 0x100013DB8, symSize: 0x4C }
  - { offset: 0x23452, size: 0x8, addend: 0x0, symName: __ZNSt4pairIPSt18_Rb_tree_node_baseS1_EC1IS1_RS1_Lb1EEEOT_OT0_, symObjAddr: 0x135D4, symBinAddr: 0x100013D6C, symSize: 0x4C }
  - { offset: 0x23545, size: 0x8, addend: 0x0, symName: __ZNSt19__ptr_traits_ptr_toIPKcS0_Lb0EE10pointer_toERS0_, symObjAddr: 0x135AC, symBinAddr: 0x100013D44, symSize: 0x28 }
  - { offset: 0x235B4, size: 0x8, addend: 0x0, symName: __ZNSt7__cxx1112basic_stringIcSt11char_traitsIcESaIcEE11_S_allocateERS3_m, symObjAddr: 0x13568, symBinAddr: 0x100013D00, symSize: 0x44 }
  - { offset: 0x241EB, size: 0x8, addend: 0x0, symName: __ZN3Log6detail9print_argIA32_cEEvRKT_, symObjAddr: 0x13540, symBinAddr: 0x100013CD8, symSize: 0x28 }
  - { offset: 0x24223, size: 0x8, addend: 0x0, symName: __ZN3Log6detail9print_argIA5_cEEvRKT_, symObjAddr: 0x13518, symBinAddr: 0x100013CB0, symSize: 0x28 }
  - { offset: 0x2425B, size: 0x8, addend: 0x0, symName: __ZN3Log6detail9print_argIA23_cEEvRKT_, symObjAddr: 0x134F0, symBinAddr: 0x100013C88, symSize: 0x28 }
  - { offset: 0x2428D, size: 0x8, addend: 0x0, symName: __ZSt18uninitialized_copyIPSt6vectorIdSaIdEES3_ET0_T_S5_S4_, symObjAddr: 0x134C4, symBinAddr: 0x100013C5C, symSize: 0x2C }
  - { offset: 0x24336, size: 0x8, addend: 0x0, symName: __ZSt12__miter_baseIPSt6vectorIdSaIdEEET_S4_, symObjAddr: 0x134B0, symBinAddr: 0x100013C48, symSize: 0x14 }
  - { offset: 0x24369, size: 0x8, addend: 0x0, symName: __ZSt8_DestroyIN9__gnu_cxx17__normal_iteratorIPSt6vectorIdSaIdEES2_IS4_SaIS4_EEEEEvT_S9_, symObjAddr: 0x13434, symBinAddr: 0x100013BCC, symSize: 0x7C }
  - { offset: 0x244CA, size: 0x8, addend: 0x0, symName: __ZSt12__miter_baseIN9__gnu_cxx17__normal_iteratorIPKSt6vectorIdSaIdEES2_IS4_SaIS4_EEEEET_SA_, symObjAddr: 0x13420, symBinAddr: 0x100013BB8, symSize: 0x14 }
  - { offset: 0x24501, size: 0x8, addend: 0x0, symName: __ZNSt6vectorIS_IdSaIdEESaIS1_EE12_Guard_alloc10_M_releaseEv, symObjAddr: 0x133F8, symBinAddr: 0x100013B90, symSize: 0x28 }
  - { offset: 0x24538, size: 0x8, addend: 0x0, symName: __ZN3Log6detail9print_argIiEEvRKT_, symObjAddr: 0x133C8, symBinAddr: 0x100013B60, symSize: 0x30 }
  - { offset: 0x24570, size: 0x8, addend: 0x0, symName: __ZN3Log6detail9print_argIA13_cEEvRKT_, symObjAddr: 0x133A0, symBinAddr: 0x100013B38, symSize: 0x28 }
  - { offset: 0x245A2, size: 0x8, addend: 0x0, symName: __ZNSt6vectorImSaImEE11_S_relocateEPmS2_S2_RS0_, symObjAddr: 0x1336C, symBinAddr: 0x100013B04, symSize: 0x34 }
  - { offset: 0x2461D, size: 0x8, addend: 0x0, symName: __ZNSt6vectorImSaImEE12_Guard_allocD1Ev, symObjAddr: 0x13320, symBinAddr: 0x100013AB8, symSize: 0x4C }
  - { offset: 0x24687, size: 0x8, addend: 0x0, symName: __ZNSt6vectorImSaImEE12_Guard_allocC1EPmmRSt12_Vector_baseImS0_E, symObjAddr: 0x132DC, symBinAddr: 0x100013A74, symSize: 0x44 }
  - { offset: 0x246C8, size: 0x8, addend: 0x0, symName: __ZNSt12_Vector_baseImSaImEE11_M_allocateEm, symObjAddr: 0x1328C, symBinAddr: 0x100013A24, symSize: 0x50 }
  - { offset: 0x24730, size: 0x8, addend: 0x0, symName: __ZNKSt6vectorImSaImEE12_M_check_lenEmPKc, symObjAddr: 0x131BC, symBinAddr: 0x100013954, symSize: 0xD0 }
  - { offset: 0x247BF, size: 0x8, addend: 0x0, symName: __ZNSt6vectorIeSaIeEE12_Guard_alloc10_M_releaseEv, symObjAddr: 0x13194, symBinAddr: 0x10001392C, symSize: 0x28 }
  - { offset: 0x24814, size: 0x8, addend: 0x0, symName: __ZNSt6vectorIeSaIeEE12_Guard_allocD1Ev, symObjAddr: 0x13148, symBinAddr: 0x1000138E0, symSize: 0x4C }
  - { offset: 0x2487E, size: 0x8, addend: 0x0, symName: __ZNSt6vectorIeSaIeEE12_Guard_allocC1EPemRSt12_Vector_baseIeS0_E, symObjAddr: 0x13104, symBinAddr: 0x10001389C, symSize: 0x44 }
  - { offset: 0x248BF, size: 0x8, addend: 0x0, symName: __ZNSt12_Vector_baseIeSaIeEE11_M_allocateEm, symObjAddr: 0x130B4, symBinAddr: 0x10001384C, symSize: 0x50 }
  - { offset: 0x24927, size: 0x8, addend: 0x0, symName: __ZNSt6vectorIeSaIeEE15_M_erase_at_endEPe, symObjAddr: 0x1302C, symBinAddr: 0x1000137C4, symSize: 0x88 }
  - { offset: 0x249BE, size: 0x8, addend: 0x0, symName: __ZN3Log6detail9print_argIA43_cEEvRKT_, symObjAddr: 0x13004, symBinAddr: 0x10001379C, symSize: 0x28 }
  - { offset: 0x249F0, size: 0x8, addend: 0x0, symName: __ZSt18uninitialized_copyIPdS0_ET0_T_S2_S1_, symObjAddr: 0x12F88, symBinAddr: 0x100013720, symSize: 0x7C }
  - { offset: 0x24B18, size: 0x8, addend: 0x0, symName: __ZSt12__miter_baseIPdET_S1_, symObjAddr: 0x12F74, symBinAddr: 0x10001370C, symSize: 0x14 }
  - { offset: 0x24B4B, size: 0x8, addend: 0x0, symName: __ZSt8_DestroyIN9__gnu_cxx17__normal_iteratorIPdSt6vectorIdSaIdEEEEEvT_S7_, symObjAddr: 0x12F5C, symBinAddr: 0x1000136F4, symSize: 0x18 }
  - { offset: 0x24BDB, size: 0x8, addend: 0x0, symName: __ZSt12__miter_baseIN9__gnu_cxx17__normal_iteratorIPKdSt6vectorIdSaIdEEEEET_S8_, symObjAddr: 0x12F48, symBinAddr: 0x1000136E0, symSize: 0x14 }
  - { offset: 0x24C12, size: 0x8, addend: 0x0, symName: __ZNSt6vectorIdSaIdEE12_Guard_alloc10_M_releaseEv, symObjAddr: 0x12F20, symBinAddr: 0x1000136B8, symSize: 0x28 }
  - { offset: 0x24C55, size: 0x8, addend: 0x0, symName: __ZN3Log6detail10print_implIJRA22_KcRmRA7_S2_iRA5_S2_RdRA13_S2_S5_EEEvPS2_SD_DpOT_, symObjAddr: 0x12E38, symBinAddr: 0x1000135D0, symSize: 0xE8 }
  - { offset: 0x24E56, size: 0x8, addend: 0x0, symName: __ZNKSt6vectorImSaImEE11_M_data_ptrImEEPT_S4_, symObjAddr: 0x12E20, symBinAddr: 0x1000135B8, symSize: 0x18 }
  - { offset: 0x24E96, size: 0x8, addend: 0x0, symName: __ZNSt14_Function_base13_Base_managerIZN16LinearRegression3fitERKSt6vectorIS2_IdSaIdEESaIS4_EERKS4_mbEUlS8_PKmSC_RK12LinearParamsRSD_E_E10_M_managerERSt9_Any_dataRKSJ_St18_Manager_operation, symObjAddr: 0x12D64, symBinAddr: 0x1000134FC, symSize: 0xBC }
  - { offset: 0x24EE9, size: 0x8, addend: 0x0, symName: __ZNSt9_Any_data9_M_accessIPZN16LinearRegression3fitERKSt6vectorIS2_IdSaIdEESaIS4_EERKS4_mbEUlS8_PKmSC_RK12LinearParamsRSD_E_EERT_v, symObjAddr: 0x12D48, symBinAddr: 0x1000134E0, symSize: 0x1C }
  - { offset: 0x24F22, size: 0x8, addend: 0x0, symName: __ZNSt9_Any_data9_M_accessIPKSt9type_infoEERT_v, symObjAddr: 0x12D2C, symBinAddr: 0x1000134C4, symSize: 0x1C }
  - { offset: 0x24F51, size: 0x8, addend: 0x0, symName: __ZSt10__invoke_rIvRZN16LinearRegression3fitERKSt6vectorIS1_IdSaIdEESaIS3_EERKS3_mbEUlS7_PKmSB_RK12LinearParamsRSC_E_JS7_SB_SB_SE_SF_EENSt9enable_ifIX16is_invocable_r_vIT_T0_JDpT1_EEESJ_E4typeEOSK_DpOSL_, symObjAddr: 0x12C98, symBinAddr: 0x100013430, symSize: 0x94 }
  - { offset: 0x25144, size: 0x8, addend: 0x0, symName: __ZNSt14_Function_base13_Base_managerIZN16LinearRegression3fitERKSt6vectorIS2_IdSaIdEESaIS4_EERKS4_mbEUlS8_PKmSC_RK12LinearParamsRSD_E_E14_M_get_pointerERKSt9_Any_data, symObjAddr: 0x12C78, symBinAddr: 0x100013410, symSize: 0x20 }
  - { offset: 0x2516D, size: 0x8, addend: 0x0, symName: __ZNSt14_Function_base13_Base_managerIZN16LinearRegression3fitERKSt6vectorIS2_IdSaIdEESaIS4_EERKS4_mbEUlS8_PKmSC_RK12LinearParamsRSD_E_E9_M_createIRSH_EEvRSt9_Any_dataOT_St17integral_constantIbLb0EE, symObjAddr: 0x12BF4, symBinAddr: 0x10001338C, symSize: 0x84 }
  - { offset: 0x251DF, size: 0x8, addend: 0x0, symName: __ZNSt6vectorImSaImEE15_M_erase_at_endEPm, symObjAddr: 0x12B6C, symBinAddr: 0x100013304, symSize: 0x88 }
  - { offset: 0x25274, size: 0x8, addend: 0x0, symName: __ZNSt6vectorImSaImEE17_M_default_appendEm, symObjAddr: 0x1294C, symBinAddr: 0x1000130E4, symSize: 0x220 }
  - { offset: 0x2538B, size: 0x8, addend: 0x0, symName: __ZNSt6vectorIeSaIeEE13_M_assign_auxIN9__gnu_cxx17__normal_iteratorIPdS_IdSaIdEEEEEEvT_S9_St20forward_iterator_tag, symObjAddr: 0x126E8, symBinAddr: 0x100012E80, symSize: 0x264 }
  - { offset: 0x25631, size: 0x8, addend: 0x0, symName: __ZSt18uninitialized_copyIN9__gnu_cxx17__normal_iteratorIPKSt6vectorIdSaIdEES2_IS4_SaIS4_EEEEPS4_ET0_T_SC_SB_, symObjAddr: 0x126BC, symBinAddr: 0x100012E54, symSize: 0x2C }
  - { offset: 0x256A8, size: 0x8, addend: 0x0, symName: __ZN3Log6detail9print_argIA30_cEEvRKT_, symObjAddr: 0x12694, symBinAddr: 0x100012E2C, symSize: 0x28 }
  - { offset: 0x256E0, size: 0x8, addend: 0x0, symName: __ZN3Log6detail9print_argIA19_cEEvRKT_, symObjAddr: 0x1266C, symBinAddr: 0x100012E04, symSize: 0x28 }
  - { offset: 0x25718, size: 0x8, addend: 0x0, symName: __ZN3Log6detail9print_argIA29_cEEvRKT_, symObjAddr: 0x12644, symBinAddr: 0x100012DDC, symSize: 0x28 }
  - { offset: 0x25750, size: 0x8, addend: 0x0, symName: __ZN3Log6detail9print_argIA68_cEEvRKT_, symObjAddr: 0x1261C, symBinAddr: 0x100012DB4, symSize: 0x28 }
  - { offset: 0x257C3, size: 0x8, addend: 0x0, symName: __ZSt4copyIPKdPdET0_T_S4_S3_, symObjAddr: 0x12584, symBinAddr: 0x100012D1C, symSize: 0x98 }
  - { offset: 0x2592C, size: 0x8, addend: 0x0, symName: __ZNSt6vectorIdSaIdEE20_M_allocate_and_copyIPKdEEPdmT_S6_, symObjAddr: 0x124F8, symBinAddr: 0x100012C90, symSize: 0x8C }
  - { offset: 0x25A16, size: 0x8, addend: 0x0, symName: __ZNSt12_Vector_baseIeSaIeEE17_Vector_impl_data12_M_swap_dataERS2_, symObjAddr: 0x124AC, symBinAddr: 0x100012C44, symSize: 0x4C }
  - { offset: 0x25A88, size: 0x8, addend: 0x0, symName: __ZNSt6vectorIeSaIeEEC1ERKS0_, symObjAddr: 0x12484, symBinAddr: 0x100012C1C, symSize: 0x28 }
  - { offset: 0x25AB7, size: 0x8, addend: 0x0, symName: __ZNKSt12_Vector_baseIeSaIeEE13get_allocatorEv, symObjAddr: 0x12434, symBinAddr: 0x100012BCC, symSize: 0x50 }
  - { offset: 0x25B9E, size: 0x8, addend: 0x0, symName: __ZSt27__uninitialized_default_n_aIPdmdET_S1_T0_RSaIT1_E, symObjAddr: 0x1240C, symBinAddr: 0x100012BA4, symSize: 0x28 }
  - { offset: 0x25C31, size: 0x8, addend: 0x0, symName: __ZNSt10_Head_baseILm0ESt6vectorIS0_IdSaIdEESaIS2_EELb0EEC2IRS4_EEOT_, symObjAddr: 0x123DC, symBinAddr: 0x100012B74, symSize: 0x30 }
  - { offset: 0x25CE2, size: 0x8, addend: 0x0, symName: __ZNSt11_Tuple_implILm1EJSt6vectorIS0_IdSaIdEESaIS2_EES2_S2_EEC2IRS4_JRS2_S8_EvEEOT_DpOT0_, symObjAddr: 0x12364, symBinAddr: 0x100012AFC, symSize: 0x78 }
  - { offset: 0x25DFB, size: 0x8, addend: 0x0, symName: __ZNSt4pairISt6vectorIZ8split_xyRKS0_IS0_IdSaIdEESaIS2_EERKS2_djE6SampleSaIS9_EESB_EC1IRSB_SE_Lb1EEEOT_OT0_, symObjAddr: 0x122FC, symBinAddr: 0x100012A94, symSize: 0x68 }
  - { offset: 0x25EB1, size: 0x8, addend: 0x0, symName: __ZNSt6vectorIZ8split_xyRKS_IS_IdSaIdEESaIS1_EERKS1_djE6SampleSaIS8_EE17_M_realloc_appendIJRKS8_EEEvDpOT_, symObjAddr: 0x120C0, symBinAddr: 0x100012858, symSize: 0x23C }
  - { offset: 0x2613B, size: 0x8, addend: 0x0, symName: __ZSt18uninitialized_copyIN9__gnu_cxx17__normal_iteratorIPKZ8split_xyRKSt6vectorIS2_IdSaIdEESaIS4_EERKS4_djE6SampleS2_ISB_SaISB_EEEEPSB_ET0_T_SJ_SI_, symObjAddr: 0x12094, symBinAddr: 0x10001282C, symSize: 0x2C }
  - { offset: 0x261BE, size: 0x8, addend: 0x0, symName: __ZNSt12_Vector_baseIZ8split_xyRKSt6vectorIS0_IdSaIdEESaIS2_EERKS2_djE6SampleSaIS9_EE17_M_create_storageEm, symObjAddr: 0x12034, symBinAddr: 0x1000127CC, symSize: 0x60 }
  - { offset: 0x26220, size: 0x8, addend: 0x0, symName: __ZNSt12_Vector_baseIZ8split_xyRKSt6vectorIS0_IdSaIdEESaIS2_EERKS2_djE6SampleSaIS9_EE12_Vector_implC1ERKSA_, symObjAddr: 0x11FE8, symBinAddr: 0x100012780, symSize: 0x4C }
  - { offset: 0x262BD, size: 0x8, addend: 0x0, symName: __ZNSt6vectorIZ8split_xyRKS_IS_IdSaIdEESaIS1_EERKS1_djE6SampleSaIS8_EE4backEv, symObjAddr: 0x11F4C, symBinAddr: 0x1000126E4, symSize: 0x9C }
  - { offset: 0x26376, size: 0x8, addend: 0x0, symName: __ZNSt6vectorIZ8split_xyRKS_IS_IdSaIdEESaIS1_EERKS1_djE6SampleSaIS8_EE17_M_realloc_appendIJS8_EEEvDpOT_, symObjAddr: 0x11D4C, symBinAddr: 0x1000124E4, symSize: 0x200 }
  - { offset: 0x26628, size: 0x8, addend: 0x0, symName: __ZSt18uninitialized_copyIN9__gnu_cxx17__normal_iteratorIPKdSt6vectorIdSaIdEEEEPdET0_T_SA_S9_, symObjAddr: 0x11CB4, symBinAddr: 0x10001244C, symSize: 0x98 }
  - { offset: 0x267E5, size: 0x8, addend: 0x0, symName: __ZSt12__relocate_aIPZ8split_xyRKSt6vectorIS0_IdSaIdEESaIS2_EERKS2_djE6SampleSA_SaIS9_EET0_T_SD_SC_RT1_, symObjAddr: 0x11C68, symBinAddr: 0x100012400, symSize: 0x4C }
  - { offset: 0x268ED, size: 0x8, addend: 0x0, symName: __ZNSt6vectorIZ8split_xyRKS_IS_IdSaIdEESaIS1_EERKS1_djE6SampleSaIS8_EE11_S_max_sizeERKS9_, symObjAddr: 0x11C14, symBinAddr: 0x1000123AC, symSize: 0x54 }
  - { offset: 0x269A4, size: 0x8, addend: 0x0, symName: __ZSt8_DestroyIPZ8split_xyRKSt6vectorIS0_IdSaIdEESaIS2_EERKS2_djE6SampleEvT_SB_, symObjAddr: 0x11BC4, symBinAddr: 0x10001235C, symSize: 0x50 }
  - { offset: 0x26A57, size: 0x8, addend: 0x0, symName: __ZN3Log6detail9print_argIA2_cEEvRKT_, symObjAddr: 0x11B9C, symBinAddr: 0x100012334, symSize: 0x28 }
  - { offset: 0x26A8F, size: 0x8, addend: 0x0, symName: __ZN3Log6detail9print_argIA4_cEEvRKT_, symObjAddr: 0x11B74, symBinAddr: 0x10001230C, symSize: 0x28 }
  - { offset: 0x26AC1, size: 0x8, addend: 0x0, symName: __ZNSt7__cxx1112basic_stringIcSt11char_traitsIcESaIcEE9_S_assignEPcmc, symObjAddr: 0x11B1C, symBinAddr: 0x1000122B4, symSize: 0x58 }
  - { offset: 0x26B13, size: 0x8, addend: 0x0, symName: __ZN3Log6detail9print_argIA20_cEEvRKT_, symObjAddr: 0x11AF4, symBinAddr: 0x10001228C, symSize: 0x28 }
  - { offset: 0x26B54, size: 0x8, addend: 0x0, symName: __ZNK9__gnu_cxx5__ops15_Iter_less_iterclINS_17__normal_iteratorIPKdSt6vectorIdSaIdEEEES9_EEbT_T0_, symObjAddr: 0x11AC0, symBinAddr: 0x100012258, symSize: 0x34 }
  - { offset: 0x26BEC, size: 0x8, addend: 0x0, symName: __ZN3Log6detail9print_argIA7_cEEvRKT_, symObjAddr: 0x11A98, symBinAddr: 0x100012230, symSize: 0x28 }
  - { offset: 0x26C24, size: 0x8, addend: 0x0, symName: __ZN3Log6detail9print_argIA12_cEEvRKT_, symObjAddr: 0x11A70, symBinAddr: 0x100012208, symSize: 0x28 }
  - { offset: 0x26C56, size: 0x8, addend: 0x0, symName: __ZN3Log6detail9print_argImEEvRKT_, symObjAddr: 0x11A40, symBinAddr: 0x1000121D8, symSize: 0x30 }
  - { offset: 0x26C8E, size: 0x8, addend: 0x0, symName: __ZN3Log6detail9print_argIA6_cEEvRKT_, symObjAddr: 0x11A18, symBinAddr: 0x1000121B0, symSize: 0x28 }
  - { offset: 0x26CC4, size: 0x8, addend: 0x0, symName: __ZNSt6vectorIS_IdSaIdEESaIS1_EE4backEv, symObjAddr: 0x11970, symBinAddr: 0x100012108, symSize: 0xA8 }
  - { offset: 0x26D7B, size: 0x8, addend: 0x0, symName: __ZNSt6vectorIS_IdSaIdEESaIS1_EE17_M_realloc_appendIJS1_EEEvDpOT_, symObjAddr: 0x11738, symBinAddr: 0x100011ED0, symSize: 0x238 }
  - { offset: 0x27009, size: 0x8, addend: 0x0, symName: __ZSt22__uninitialized_copy_aIPKdS1_PddET1_T_T0_S3_RSaIT2_E, symObjAddr: 0x11708, symBinAddr: 0x100011EA0, symSize: 0x30 }
  - { offset: 0x270AB, size: 0x8, addend: 0x0, symName: __ZNKSt19normal_distributionIdE10param_type4meanEv, symObjAddr: 0x116EC, symBinAddr: 0x100011E84, symSize: 0x1C }
  - { offset: 0x270D5, size: 0x8, addend: 0x0, symName: __ZNKSt19normal_distributionIdE10param_type6stddevEv, symObjAddr: 0x116D0, symBinAddr: 0x100011E68, symSize: 0x1C }
  - { offset: 0x270FF, size: 0x8, addend: 0x0, symName: __ZNKSt25uniform_real_distributionIdE10param_type1aEv, symObjAddr: 0x116B4, symBinAddr: 0x100011E4C, symSize: 0x1C }
  - { offset: 0x27129, size: 0x8, addend: 0x0, symName: __ZNKSt25uniform_real_distributionIdE10param_type1bEv, symObjAddr: 0x11698, symBinAddr: 0x100011E30, symSize: 0x1C }
  - { offset: 0x27153, size: 0x8, addend: 0x0, symName: __ZNSt8__detail8_AdaptorISt23mersenne_twister_engineIjLm32ELm624ELm397ELm31ELj2567483615ELm11ELj4294967295ELm7ELj2636928640ELm15ELj4022730752ELm18ELj1812433253EEdEclEv, symObjAddr: 0x11670, symBinAddr: 0x100011E08, symSize: 0x28 }
  - { offset: 0x271A5, size: 0x8, addend: 0x0, symName: __ZNSt8__detail8_AdaptorISt23mersenne_twister_engineIjLm32ELm624ELm397ELm31ELj2567483615ELm11ELj4294967295ELm7ELj2636928640ELm15ELj4022730752ELm18ELj1812433253EEdEC1ERS2_, symObjAddr: 0x1164C, symBinAddr: 0x100011DE4, symSize: 0x24 }
  - { offset: 0x271D4, size: 0x8, addend: 0x0, symName: __ZNSt6vectorIdSaIdEE17_M_realloc_appendIJdEEEvDpOT_, symObjAddr: 0x11458, symBinAddr: 0x100011BF0, symSize: 0x1F4 }
  - { offset: 0x274A0, size: 0x8, addend: 0x0, symName: __ZNSt7__cxx1112basic_stringIcSt11char_traitsIcESaIcEE6appendEPKcm, symObjAddr: 0x11414, symBinAddr: 0x100011BAC, symSize: 0x44 }
  - { offset: 0x27501, size: 0x8, addend: 0x0, symName: __ZNKSt7__cxx1112basic_stringIcSt11char_traitsIcESaIcEE16_M_get_allocatorEv, symObjAddr: 0x11400, symBinAddr: 0x100011B98, symSize: 0x14 }
  - { offset: 0x27558, size: 0x8, addend: 0x0, symName: __ZNSt12_Vector_baseIdSaIdEE17_Vector_impl_data12_M_swap_dataERS2_, symObjAddr: 0x113B4, symBinAddr: 0x100011B4C, symSize: 0x4C }
  - { offset: 0x275CA, size: 0x8, addend: 0x0, symName: __ZNSt6vectorIdSaIdEEC1ERKS0_, symObjAddr: 0x1138C, symBinAddr: 0x100011B24, symSize: 0x28 }
  - { offset: 0x275F9, size: 0x8, addend: 0x0, symName: __ZNKSt12_Vector_baseIdSaIdEE13get_allocatorEv, symObjAddr: 0x1133C, symBinAddr: 0x100011AD4, symSize: 0x50 }
  - { offset: 0x276A9, size: 0x8, addend: 0x0, symName: __ZNSt12_Vector_baseISt6vectorIdSaIdEESaIS2_EE17_Vector_impl_data12_M_swap_dataERS5_, symObjAddr: 0x112F0, symBinAddr: 0x100011A88, symSize: 0x4C }
  - { offset: 0x2771B, size: 0x8, addend: 0x0, symName: __ZNSt6vectorIS_IdSaIdEESaIS1_EEC1ERKS2_, symObjAddr: 0x112C8, symBinAddr: 0x100011A60, symSize: 0x28 }
  - { offset: 0x2774A, size: 0x8, addend: 0x0, symName: __ZNKSt12_Vector_baseISt6vectorIdSaIdEESaIS2_EE13get_allocatorEv, symObjAddr: 0x11278, symBinAddr: 0x100011A10, symSize: 0x50 }
  - { offset: 0x27805, size: 0x8, addend: 0x0, symName: __ZNSt6vectorIdSaIdEE12_Guard_allocD1Ev, symObjAddr: 0x1122C, symBinAddr: 0x1000119C4, symSize: 0x4C }
  - { offset: 0x2786F, size: 0x8, addend: 0x0, symName: __ZNSt6vectorIdSaIdEE12_Guard_allocC1EPdmRSt12_Vector_baseIdS0_E, symObjAddr: 0x111E8, symBinAddr: 0x100011980, symSize: 0x44 }
  - { offset: 0x278E6, size: 0x8, addend: 0x0, symName: __ZNKSt6vectorIdSaIdEE12_M_check_lenEmPKc, symObjAddr: 0x11118, symBinAddr: 0x1000118B0, symSize: 0xD0 }
  - { offset: 0x279E5, size: 0x8, addend: 0x0, symName: __ZNSt6vectorIS_IdSaIdEESaIS1_EE12_Guard_allocD1Ev, symObjAddr: 0x110CC, symBinAddr: 0x100011864, symSize: 0x4C }
  - { offset: 0x27A4F, size: 0x8, addend: 0x0, symName: __ZNSt6vectorIS_IdSaIdEESaIS1_EE12_Guard_allocC1EPS1_mRSt12_Vector_baseIS1_S2_E, symObjAddr: 0x11088, symBinAddr: 0x100011820, symSize: 0x44 }
  - { offset: 0x27ACC, size: 0x8, addend: 0x0, symName: __ZNKSt6vectorIS_IdSaIdEESaIS1_EE12_M_check_lenEmPKc, symObjAddr: 0x10FB8, symBinAddr: 0x100011750, symSize: 0xD0 }
  - { offset: 0x27B8F, size: 0x8, addend: 0x0, symName: __ZSt12__relocate_aIPdS0_SaIdEET0_T_S3_S2_RT1_, symObjAddr: 0x10F6C, symBinAddr: 0x100011704, symSize: 0x4C }
  - { offset: 0x27C97, size: 0x8, addend: 0x0, symName: __ZSt12__relocate_aIPSt6vectorIdSaIdEES3_SaIS2_EET0_T_S6_S5_RT1_, symObjAddr: 0x10F20, symBinAddr: 0x1000116B8, symSize: 0x4C }
  - { offset: 0x27DD9, size: 0x8, addend: 0x0, symName: __ZNSt23mersenne_twister_engineIjLm32ELm624ELm397ELm31ELj2567483615ELm11ELj4294967295ELm7ELj2636928640ELm15ELj4022730752ELm18ELj1812433253EEclEv, symObjAddr: 0x10E6C, symBinAddr: 0x100011604, symSize: 0xB4 }
  - { offset: 0x27E10, size: 0x8, addend: 0x0, symName: __ZNSt24uniform_int_distributionImE5_S_ndIySt23mersenne_twister_engineIjLm32ELm624ELm397ELm31ELj2567483615ELm11ELj4294967295ELm7ELj2636928640ELm15ELj4022730752ELm18ELj1812433253EEjEET1_RT0_S4_, symObjAddr: 0x10DC8, symBinAddr: 0x100011560, symSize: 0xA4 }
  - { offset: 0x27EB0, size: 0x8, addend: 0x0, symName: __ZNKSt24uniform_int_distributionImE10param_type1aEv, symObjAddr: 0x10DB0, symBinAddr: 0x100011548, symSize: 0x18 }
  - { offset: 0x27EDA, size: 0x8, addend: 0x0, symName: __ZNKSt24uniform_int_distributionImE10param_type1bEv, symObjAddr: 0x10D98, symBinAddr: 0x100011530, symSize: 0x18 }
  - { offset: 0x27F00, size: 0x8, addend: 0x0, symName: __ZSt9make_pairImmESt4pairINSt25__strip_reference_wrapperINSt5decayIT_E4typeEE6__typeENS1_INS2_IT0_E4typeEE6__typeEEOS3_OS8_, symObjAddr: 0x10D5C, symBinAddr: 0x1000114F4, symSize: 0x3C }
  - { offset: 0x27F95, size: 0x8, addend: 0x0, symName: __ZSt4swapImENSt9enable_ifIXsrSt6__and_IJSt6__not_ISt15__is_tuple_likeIT_EESt21is_move_constructibleIS4_ESt18is_move_assignableIS4_EEE5valueEvE4typeERS4_SE_, symObjAddr: 0x10D08, symBinAddr: 0x1000114A0, symSize: 0x54 }
  - { offset: 0x2804D, size: 0x8, addend: 0x0, symName: __ZNSt8__detail5__modIjLj624ELj1ELj0EEET_S1_, symObjAddr: 0x10CEC, symBinAddr: 0x100011484, symSize: 0x1C }
  - { offset: 0x2809E, size: 0x8, addend: 0x0, symName: __ZNSt8__detail5__modIjLj0ELj1ELj0EEET_S1_, symObjAddr: 0x10CD0, symBinAddr: 0x100011468, symSize: 0x1C }
  - { offset: 0x280EE, size: 0x8, addend: 0x0, symName: __ZSt8_DestroyIPmEvT_S1_, symObjAddr: 0x10CB8, symBinAddr: 0x100011450, symSize: 0x18 }
  - { offset: 0x28130, size: 0x8, addend: 0x0, symName: __ZSt27__uninitialized_default_n_aIPmmmET_S1_T0_RSaIT1_E, symObjAddr: 0x10C90, symBinAddr: 0x100011428, symSize: 0x28 }
  - { offset: 0x28193, size: 0x8, addend: 0x0, symName: __ZNSt12_Vector_baseImSaImEE17_M_create_storageEm, symObjAddr: 0x10C30, symBinAddr: 0x1000113C8, symSize: 0x60 }
  - { offset: 0x281F5, size: 0x8, addend: 0x0, symName: __ZNSt12_Vector_baseImSaImEE12_Vector_implC1ERKS0_, symObjAddr: 0x10BE4, symBinAddr: 0x10001137C, symSize: 0x4C }
  - { offset: 0x2829B, size: 0x8, addend: 0x0, symName: __ZNSt6vectorImSaImEE11_S_max_sizeERKS0_, symObjAddr: 0x10B90, symBinAddr: 0x100011328, symSize: 0x54 }
  - { offset: 0x28352, size: 0x8, addend: 0x0, symName: __ZNSt6vectorINSt7__cxx1112basic_stringIcSt11char_traitsIcESaIcEEESaIS5_EE11_S_relocateEPS5_S8_S8_RS6_, symObjAddr: 0x10B5C, symBinAddr: 0x1000112F4, symSize: 0x34 }
  - { offset: 0x283EB, size: 0x8, addend: 0x0, symName: __ZNSt6vectorINSt7__cxx1112basic_stringIcSt11char_traitsIcESaIcEEESaIS5_EE12_Guard_allocD1Ev, symObjAddr: 0x10B10, symBinAddr: 0x1000112A8, symSize: 0x4C }
  - { offset: 0x28455, size: 0x8, addend: 0x0, symName: __ZNSt6vectorINSt7__cxx1112basic_stringIcSt11char_traitsIcESaIcEEESaIS5_EE12_Guard_allocC1EPS5_mRSt12_Vector_baseIS5_S6_E, symObjAddr: 0x10ACC, symBinAddr: 0x100011264, symSize: 0x44 }
  - { offset: 0x28496, size: 0x8, addend: 0x0, symName: __ZNSt12_Vector_baseINSt7__cxx1112basic_stringIcSt11char_traitsIcESaIcEEESaIS5_EE11_M_allocateEm, symObjAddr: 0x10A7C, symBinAddr: 0x100011214, symSize: 0x50 }
  - { offset: 0x2853A, size: 0x8, addend: 0x0, symName: __ZNKSt6vectorINSt7__cxx1112basic_stringIcSt11char_traitsIcESaIcEEESaIS5_EE12_M_check_lenEmPKc, symObjAddr: 0x109AC, symBinAddr: 0x100011144, symSize: 0xD0 }
  - { offset: 0x285D9, size: 0x8, addend: 0x0, symName: __ZSt8_DestroyIPNSt7__cxx1112basic_stringIcSt11char_traitsIcESaIcEEEEvT_S7_, symObjAddr: 0x1095C, symBinAddr: 0x1000110F4, symSize: 0x50 }
  - { offset: 0x2868A, size: 0x8, addend: 0x0, symName: __ZNK9__gnu_cxx16__aligned_membufISt4pairIKNSt7__cxx1112basic_stringIcSt11char_traitsIcESaIcEEES7_EE6_M_ptrEv, symObjAddr: 0x10940, symBinAddr: 0x1000110D8, symSize: 0x1C }
  - { offset: 0x286B6, size: 0x8, addend: 0x0, symName: __ZN3Log6detail9print_argIA40_cEEvRKT_, symObjAddr: 0x10918, symBinAddr: 0x1000110B0, symSize: 0x28 }
  - { offset: 0x286EC, size: 0x8, addend: 0x0, symName: __ZNKSt4lessINSt7__cxx1112basic_stringIcSt11char_traitsIcESaIcEEEEclERKS5_S8_, symObjAddr: 0x108F0, symBinAddr: 0x100011088, symSize: 0x28 }
  - { offset: 0x28734, size: 0x8, addend: 0x0, symName: __ZNSt8_Rb_treeINSt7__cxx1112basic_stringIcSt11char_traitsIcESaIcEEESt4pairIKS5_S5_ESt10_Select1stIS8_ESt4lessIS5_ESaIS8_EE6_S_keyEPSt18_Rb_tree_node_base, symObjAddr: 0x108D4, symBinAddr: 0x10001106C, symSize: 0x1C }
  - { offset: 0x2878A, size: 0x8, addend: 0x0, symName: __ZNSt23_Rb_tree_const_iteratorISt4pairIKNSt7__cxx1112basic_stringIcSt11char_traitsIcESaIcEEES6_EEC1EPSt18_Rb_tree_node_base, symObjAddr: 0x108B0, symBinAddr: 0x100011048, symSize: 0x24 }
  - { offset: 0x287B9, size: 0x8, addend: 0x0, symName: __ZNKSt8_Rb_treeINSt7__cxx1112basic_stringIcSt11char_traitsIcESaIcEEESt4pairIKS5_S5_ESt10_Select1stIS8_ESt4lessIS5_ESaIS8_EE6_M_endEv, symObjAddr: 0x10890, symBinAddr: 0x100011028, symSize: 0x20 }
  - { offset: 0x287E3, size: 0x8, addend: 0x0, symName: __ZNKSt8_Rb_treeINSt7__cxx1112basic_stringIcSt11char_traitsIcESaIcEEESt4pairIKS5_S5_ESt10_Select1stIS8_ESt4lessIS5_ESaIS8_EE8_M_beginEv, symObjAddr: 0x10878, symBinAddr: 0x100011010, symSize: 0x18 }
  - { offset: 0x2880D, size: 0x8, addend: 0x0, symName: __ZNKSt8_Rb_treeINSt7__cxx1112basic_stringIcSt11char_traitsIcESaIcEEESt4pairIKS5_S5_ESt10_Select1stIS8_ESt4lessIS5_ESaIS8_EE14_M_lower_boundEPSt18_Rb_tree_node_baseSG_RS7_, symObjAddr: 0x107E8, symBinAddr: 0x100010F80, symSize: 0x90 }
  - { offset: 0x2886A, size: 0x8, addend: 0x0, symName: __ZNSt13_Rb_tree_nodeISt4pairIKNSt7__cxx1112basic_stringIcSt11char_traitsIcESaIcEEES6_EE11_M_node_ptrEv, symObjAddr: 0x107D4, symBinAddr: 0x100010F6C, symSize: 0x14 }
  - { offset: 0x28894, size: 0x8, addend: 0x0, symName: __ZNSt8_Rb_treeINSt7__cxx1112basic_stringIcSt11char_traitsIcESaIcEEESt4pairIKS5_S5_ESt10_Select1stIS8_ESt4lessIS5_ESaIS8_EE12_M_drop_nodeEPSt13_Rb_tree_nodeIS8_E, symObjAddr: 0x107A0, symBinAddr: 0x100010F38, symSize: 0x34 }
  - { offset: 0x288CB, size: 0x8, addend: 0x0, symName: __ZNSt8_Rb_treeINSt7__cxx1112basic_stringIcSt11char_traitsIcESaIcEEESt4pairIKS5_S5_ESt10_Select1stIS8_ESt4lessIS5_ESaIS8_EE7_S_leftEPSt13_Rb_tree_nodeIS8_E, symObjAddr: 0x10768, symBinAddr: 0x100010F00, symSize: 0x38 }
  - { offset: 0x288F5, size: 0x8, addend: 0x0, symName: __ZNSt8_Rb_treeINSt7__cxx1112basic_stringIcSt11char_traitsIcESaIcEEESt4pairIKS5_S5_ESt10_Select1stIS8_ESt4lessIS5_ESaIS8_EE8_S_rightEPSt13_Rb_tree_nodeIS8_E, symObjAddr: 0x10730, symBinAddr: 0x100010EC8, symSize: 0x38 }
  - { offset: 0x2893D, size: 0x8, addend: 0x0, symName: __ZNSt15__new_allocatorISt13_Rb_tree_nodeISt4pairIKNSt7__cxx1112basic_stringIcSt11char_traitsIcESaIcEEES7_EEED2Ev, symObjAddr: 0x1071C, symBinAddr: 0x100010EB4, symSize: 0x14 }
  - { offset: 0x28963, size: 0x8, addend: 0x0, symName: __ZNSt8_Rb_treeINSt7__cxx1112basic_stringIcSt11char_traitsIcESaIcEEESt4pairIKS5_S5_ESt10_Select1stIS8_ESt4lessIS5_ESaIS8_EE17_M_insert_unique_IRKS8_NSE_11_Alloc_nodeEEESt17_Rb_tree_iteratorIS8_ESt23_Rb_tree_const_iteratorIS8_EOT_RT0_, symObjAddr: 0x10690, symBinAddr: 0x100010E28, symSize: 0x8C }
  - { offset: 0x28A31, size: 0x8, addend: 0x0, symName: __ZNSt23_Rb_tree_const_iteratorISt4pairIKNSt7__cxx1112basic_stringIcSt11char_traitsIcESaIcEEES6_EEC1ERKSt17_Rb_tree_iteratorIS8_E, symObjAddr: 0x10668, symBinAddr: 0x100010E00, symSize: 0x28 }
  - { offset: 0x28A60, size: 0x8, addend: 0x0, symName: __ZNSt8_Rb_treeINSt7__cxx1112basic_stringIcSt11char_traitsIcESaIcEEESt4pairIKS5_S5_ESt10_Select1stIS8_ESt4lessIS5_ESaIS8_EE3endEv, symObjAddr: 0x1063C, symBinAddr: 0x100010DD4, symSize: 0x2C }
  - { offset: 0x28AB2, size: 0x8, addend: 0x0, symName: __ZNSt8_Rb_treeINSt7__cxx1112basic_stringIcSt11char_traitsIcESaIcEEESt4pairIKS5_S5_ESt10_Select1stIS8_ESt4lessIS5_ESaIS8_EE11_Alloc_nodeC1ERSE_, symObjAddr: 0x10618, symBinAddr: 0x100010DB0, symSize: 0x24 }
  - { offset: 0x28AE1, size: 0x8, addend: 0x0, symName: __ZNKSt16initializer_listISt4pairIKNSt7__cxx1112basic_stringIcSt11char_traitsIcESaIcEEES6_EE4sizeEv, symObjAddr: 0x10600, symBinAddr: 0x100010D98, symSize: 0x18 }
  - { offset: 0x28B41, size: 0x8, addend: 0x0, symName: __ZNSt8_Rb_treeINSt7__cxx1112basic_stringIcSt11char_traitsIcESaIcEEESt4pairIKS5_S5_ESt10_Select1stIS8_ESt4lessIS5_ESaIS8_EE13_Rb_tree_implISC_Lb1EEC1ERKSC_OSaISt13_Rb_tree_nodeIS8_EE, symObjAddr: 0x10598, symBinAddr: 0x100010D30, symSize: 0x68 }
  - { offset: 0x28C38, size: 0x8, addend: 0x0, symName: __ZN3Log6detail9print_argIA54_cEEvRKT_, symObjAddr: 0x10570, symBinAddr: 0x100010D08, symSize: 0x28 }
  - { offset: 0x28C70, size: 0x8, addend: 0x0, symName: __ZN3Log6detail9print_argIA51_cEEvRKT_, symObjAddr: 0x10548, symBinAddr: 0x100010CE0, symSize: 0x28 }
  - { offset: 0x28CA8, size: 0x8, addend: 0x0, symName: __ZN3Log6detail9print_argIA46_cEEvRKT_, symObjAddr: 0x10520, symBinAddr: 0x100010CB8, symSize: 0x28 }
  - { offset: 0x28CE0, size: 0x8, addend: 0x0, symName: __ZN3Log6detail9print_argIA66_cEEvRKT_, symObjAddr: 0x104F8, symBinAddr: 0x100010C90, symSize: 0x28 }
  - { offset: 0x28D18, size: 0x8, addend: 0x0, symName: __ZN3Log6detail9print_argIA16_cEEvRKT_, symObjAddr: 0x104D0, symBinAddr: 0x100010C68, symSize: 0x28 }
  - { offset: 0x28D4E, size: 0x8, addend: 0x0, symName: __ZNSt12_Vector_baseISt6vectorIeSaIeEESaIS2_EE11_M_allocateEm, symObjAddr: 0x10480, symBinAddr: 0x100010C18, symSize: 0x50 }
  - { offset: 0x28DB2, size: 0x8, addend: 0x0, symName: __ZSt18uninitialized_copyIN9__gnu_cxx17__normal_iteratorIPKeSt6vectorIeSaIeEEEEPeET0_T_SA_S9_, symObjAddr: 0x103E8, symBinAddr: 0x100010B80, symSize: 0x98 }
  - { offset: 0x28FBC, size: 0x8, addend: 0x0, symName: __ZSt8_DestroyIPSt6vectorIeSaIeEEEvT_S4_, symObjAddr: 0x10398, symBinAddr: 0x100010B30, symSize: 0x50 }
  - { offset: 0x29021, size: 0x8, addend: 0x0, symName: __ZSt24__uninitialized_fill_n_aIPSt6vectorIeSaIeEEmS2_S2_ET_S4_T0_RKT1_RSaIT2_E, symObjAddr: 0x10368, symBinAddr: 0x100010B00, symSize: 0x30 }
  - { offset: 0x2909E, size: 0x8, addend: 0x0, symName: __ZNSt12_Vector_baseISt6vectorIeSaIeEESaIS2_EE17_M_create_storageEm, symObjAddr: 0x102FC, symBinAddr: 0x100010A94, symSize: 0x6C }
  - { offset: 0x29100, size: 0x8, addend: 0x0, symName: __ZNSt12_Vector_baseISt6vectorIeSaIeEESaIS2_EE12_Vector_implC1ERKS3_, symObjAddr: 0x102B0, symBinAddr: 0x100010A48, symSize: 0x4C }
  - { offset: 0x29183, size: 0x8, addend: 0x0, symName: __ZNSt6vectorIS_IeSaIeEESaIS1_EE11_S_max_sizeERKS2_, symObjAddr: 0x10254, symBinAddr: 0x1000109EC, symSize: 0x5C }
  - { offset: 0x29287, size: 0x8, addend: 0x0, symName: __ZSt8_DestroyIPeEvT_S1_, symObjAddr: 0x1023C, symBinAddr: 0x1000109D4, symSize: 0x18 }
  - { offset: 0x292C9, size: 0x8, addend: 0x0, symName: __ZSt24__uninitialized_fill_n_aIPemeeET_S1_T0_RKT1_RSaIT2_E, symObjAddr: 0x1020C, symBinAddr: 0x1000109A4, symSize: 0x30 }
  - { offset: 0x29346, size: 0x8, addend: 0x0, symName: __ZNSt12_Vector_baseIeSaIeEE17_M_create_storageEm, symObjAddr: 0x101AC, symBinAddr: 0x100010944, symSize: 0x60 }
  - { offset: 0x293A8, size: 0x8, addend: 0x0, symName: __ZNSt12_Vector_baseIeSaIeEE12_Vector_implC1ERKS0_, symObjAddr: 0x10160, symBinAddr: 0x1000108F8, symSize: 0x4C }
  - { offset: 0x2942B, size: 0x8, addend: 0x0, symName: __ZNSt6vectorIeSaIeEE11_S_max_sizeERKS0_, symObjAddr: 0x1010C, symBinAddr: 0x1000108A4, symSize: 0x54 }
  - { offset: 0x294E8, size: 0x8, addend: 0x0, symName: __ZN3Log6detail9print_argIA18_cEEvRKT_, symObjAddr: 0x100E4, symBinAddr: 0x10001087C, symSize: 0x28 }
  - { offset: 0x2951A, size: 0x8, addend: 0x0, symName: __ZN3Log6detail9print_argINSt7__cxx1112basic_stringIcSt11char_traitsIcESaIcEEEEEvRKT_, symObjAddr: 0x100BC, symBinAddr: 0x100010854, symSize: 0x28 }
  - { offset: 0x29578, size: 0x8, addend: 0x0, symName: __ZNSt7__cxx1112basic_stringIcSt11char_traitsIcESaIcEEC1ERKS3_, symObjAddr: 0x10064, symBinAddr: 0x1000107FC, symSize: 0x58 }
  - { offset: 0x295CD, size: 0x8, addend: 0x0, symName: __ZN3Log6detail9print_argIA17_cEEvRKT_, symObjAddr: 0x1003C, symBinAddr: 0x1000107D4, symSize: 0x28 }
  - { offset: 0x295FF, size: 0x8, addend: 0x0, symName: __ZN3Log6detail9print_argIA22_cEEvRKT_, symObjAddr: 0x10014, symBinAddr: 0x1000107AC, symSize: 0x28 }
  - { offset: 0x2967E, size: 0x8, addend: 0x0, symName: __ZSt8_DestroyIPSt6vectorIdSaIdEEEvT_S4_, symObjAddr: 0xFFC4, symBinAddr: 0x10001075C, symSize: 0x50 }
  - { offset: 0x296E3, size: 0x8, addend: 0x0, symName: __ZSt24__uninitialized_fill_n_aIPSt6vectorIdSaIdEEmS2_S2_ET_S4_T0_RKT1_RSaIT2_E, symObjAddr: 0xFF94, symBinAddr: 0x10001072C, symSize: 0x30 }
  - { offset: 0x29760, size: 0x8, addend: 0x0, symName: __ZNSt12_Vector_baseISt6vectorIdSaIdEESaIS2_EE17_M_create_storageEm, symObjAddr: 0xFF28, symBinAddr: 0x1000106C0, symSize: 0x6C }
  - { offset: 0x297C2, size: 0x8, addend: 0x0, symName: __ZNSt12_Vector_baseISt6vectorIdSaIdEESaIS2_EE12_Vector_implC1ERKS3_, symObjAddr: 0xFEDC, symBinAddr: 0x100010674, symSize: 0x4C }
  - { offset: 0x29845, size: 0x8, addend: 0x0, symName: __ZNSt6vectorIS_IdSaIdEESaIS1_EE11_S_max_sizeERKS2_, symObjAddr: 0xFE80, symBinAddr: 0x100010618, symSize: 0x5C }
  - { offset: 0x298FC, size: 0x8, addend: 0x0, symName: __ZSt24__uninitialized_fill_n_aIPdmddET_S1_T0_RKT1_RSaIT2_E, symObjAddr: 0xFE50, symBinAddr: 0x1000105E8, symSize: 0x30 }
  - { offset: 0x29979, size: 0x8, addend: 0x0, symName: __ZNSt12_Vector_baseIdSaIdEE17_M_create_storageEm, symObjAddr: 0xFDF0, symBinAddr: 0x100010588, symSize: 0x60 }
  - { offset: 0x299B0, size: 0x8, addend: 0x0, symName: __ZNSt6vectorIdSaIdEE11_S_max_sizeERKS0_, symObjAddr: 0xFD9C, symBinAddr: 0x100010534, symSize: 0x54 }
  - { offset: 0x29A67, size: 0x8, addend: 0x0, symName: __ZSt8_DestroyIPdEvT_S1_, symObjAddr: 0xFD84, symBinAddr: 0x10001051C, symSize: 0x18 }
  - { offset: 0x29AD4, size: 0x8, addend: 0x0, symName: __ZNSt12_Vector_baseIdSaIdEE12_Vector_implC1ERKS0_, symObjAddr: 0xFD38, symBinAddr: 0x1000104D0, symSize: 0x4C }
  - { offset: 0x29B57, size: 0x8, addend: 0x0, symName: __ZNSt7__cxx1112basic_stringIcSt11char_traitsIcESaIcEE13_S_copy_charsIPKcEEvPcT_S9_, symObjAddr: 0xFCF0, symBinAddr: 0x100010488, symSize: 0x48 }
  - { offset: 0x29BD4, size: 0x8, addend: 0x0, symName: __ZNKSt7__cxx1112basic_stringIcSt11char_traitsIcESaIcEE8max_sizeEv, symObjAddr: 0xFC94, symBinAddr: 0x10001042C, symSize: 0x5C }
  - { offset: 0x29CB6, size: 0x8, addend: 0x0, symName: __ZNKSt7__cxx1112basic_stringIcSt11char_traitsIcESaIcEE13_M_local_dataEv, symObjAddr: 0xFC74, symBinAddr: 0x10001040C, symSize: 0x20 }
  - { offset: 0x29CDC, size: 0x8, addend: 0x0, symName: __ZNSt7__cxx1112basic_stringIcSt11char_traitsIcESaIcEE7_S_copyEPcPKcm, symObjAddr: 0xFC28, symBinAddr: 0x1000103C0, symSize: 0x4C }
  - { offset: 0x29D2F, size: 0x8, addend: 0x0, symName: __ZNSt7__cxx1112basic_stringIcSt11char_traitsIcESaIcEE9_M_createERmm, symObjAddr: 0xFB34, symBinAddr: 0x1000102CC, symSize: 0xF4 }
  - { offset: 0x29D79, size: 0x8, addend: 0x0, symName: __ZNKSt7__cxx1112basic_stringIcSt11char_traitsIcESaIcEE8capacityEv, symObjAddr: 0xFAB0, symBinAddr: 0x100010248, symSize: 0x84 }
  - { offset: 0x29DB4, size: 0x8, addend: 0x0, symName: __ZNSt7__cxx1112basic_stringIcSt11char_traitsIcESaIcEE10_M_destroyEm, symObjAddr: 0xFA4C, symBinAddr: 0x1000101E4, symSize: 0x64 }
  - { offset: 0x29E44, size: 0x8, addend: 0x0, symName: __ZNSt19__ptr_traits_ptr_toIPccLb0EE10pointer_toERc, symObjAddr: 0xFA24, symBinAddr: 0x1000101BC, symSize: 0x28 }
  - { offset: 0x29EB3, size: 0x8, addend: 0x0, symName: __ZN3Log6detail10print_implIJRA32_KcEEEvPS2_S5_DpOT_, symObjAddr: 0xF9C0, symBinAddr: 0x100010158, symSize: 0x64 }
  - { offset: 0x29F51, size: 0x8, addend: 0x0, symName: __ZN3Log6detail10print_implIJRA23_KcmRA5_S2_EEEvPS2_S7_DpOT_, symObjAddr: 0xF934, symBinAddr: 0x1000100CC, symSize: 0x8C }
  - { offset: 0x2A09A, size: 0x8, addend: 0x0, symName: __ZSt22__uninitialized_copy_aIPSt6vectorIdSaIdEES3_S3_S2_ET1_T_T0_S4_RSaIT2_E, symObjAddr: 0xF904, symBinAddr: 0x10001009C, symSize: 0x30 }
  - { offset: 0x2A113, size: 0x8, addend: 0x0, symName: __ZSt4copyIPSt6vectorIdSaIdEES3_ET0_T_S5_S4_, symObjAddr: 0xF86C, symBinAddr: 0x100010004, symSize: 0x98 }
  - { offset: 0x2A2B3, size: 0x8, addend: 0x0, symName: __ZSt4copyIN9__gnu_cxx17__normal_iteratorIPKSt6vectorIdSaIdEES2_IS4_SaIS4_EEEENS1_IPS4_S8_EEET0_T_SD_SC_, symObjAddr: 0xF7C4, symBinAddr: 0x10000FF5C, symSize: 0xA8 }
  - { offset: 0x2A454, size: 0x8, addend: 0x0, symName: __ZNSt6vectorIS_IdSaIdEESaIS1_EE20_M_allocate_and_copyIN9__gnu_cxx17__normal_iteratorIPKS1_S3_EEEEPS1_mT_SB_, symObjAddr: 0xF720, symBinAddr: 0x10000FEB8, symSize: 0xA4 }
  - { offset: 0x2A528, size: 0x8, addend: 0x0, symName: __ZNSt6vectorIS_IdSaIdEESaIS1_EE15_M_erase_at_endEPS1_, symObjAddr: 0xF68C, symBinAddr: 0x10000FE24, symSize: 0x94 }
  - { offset: 0x2A5E1, size: 0x8, addend: 0x0, symName: __ZNSt12_Vector_baseImSaImEE13_M_deallocateEPmm, symObjAddr: 0xF634, symBinAddr: 0x10000FDCC, symSize: 0x58 }
  - { offset: 0x2A67D, size: 0x8, addend: 0x0, symName: __ZNSt12_Vector_baseImSaImEE17_Vector_impl_dataC2Ev, symObjAddr: 0xF608, symBinAddr: 0x10000FDA0, symSize: 0x2C }
  - { offset: 0x2A6A3, size: 0x8, addend: 0x0, symName: __ZNKSt12_Vector_baseImSaImEE19_M_get_Tp_allocatorEv, symObjAddr: 0xF5F4, symBinAddr: 0x10000FD8C, symSize: 0x14 }
  - { offset: 0x2A6CD, size: 0x8, addend: 0x0, symName: __ZNKSt6vectorIeSaIeEE8capacityEv, symObjAddr: 0xF5B4, symBinAddr: 0x10000FD4C, symSize: 0x40 }
  - { offset: 0x2A728, size: 0x8, addend: 0x0, symName: __ZN3Log6detail10print_implIJRA43_KcRdEEEvPS2_S6_DpOT_, symObjAddr: 0xF53C, symBinAddr: 0x10000FCD4, symSize: 0x78 }
  - { offset: 0x2A863, size: 0x8, addend: 0x0, symName: __ZSt22__uninitialized_copy_aIPdS0_S0_dET1_T_T0_S1_RSaIT2_E, symObjAddr: 0xF50C, symBinAddr: 0x10000FCA4, symSize: 0x30 }
  - { offset: 0x2A8DC, size: 0x8, addend: 0x0, symName: __ZSt4copyIPdS0_ET0_T_S2_S1_, symObjAddr: 0xF474, symBinAddr: 0x10000FC0C, symSize: 0x98 }
  - { offset: 0x2AA7C, size: 0x8, addend: 0x0, symName: __ZSt4copyIN9__gnu_cxx17__normal_iteratorIPKdSt6vectorIdSaIdEEEENS1_IPdS6_EEET0_T_SB_SA_, symObjAddr: 0xF3CC, symBinAddr: 0x10000FB64, symSize: 0xA8 }
  - { offset: 0x2AC1D, size: 0x8, addend: 0x0, symName: __ZNSt6vectorIdSaIdEE20_M_allocate_and_copyIN9__gnu_cxx17__normal_iteratorIPKdS1_EEEEPdmT_S9_, symObjAddr: 0xF340, symBinAddr: 0x10000FAD8, symSize: 0x8C }
  - { offset: 0x2ACED, size: 0x8, addend: 0x0, symName: __ZN3Log4infoIJRA22_KcRmRA7_S1_iRA5_S1_RdRA13_S1_S4_EEEvDpOT_, symObjAddr: 0xF270, symBinAddr: 0x10000FA08, symSize: 0xD0 }
  - { offset: 0x2AEAA, size: 0x8, addend: 0x0, symName: __ZN15GradientDescentI12LinearParamsSt6vectorIS1_IdSaIdEESaIS3_EEE12apply_updateERKS0_S8_m, symObjAddr: 0xF150, symBinAddr: 0x10000F8E8, symSize: 0x120 }
  - { offset: 0x2AF08, size: 0x8, addend: 0x0, symName: __ZNKSt8functionIFvRKSt6vectorIS0_IdSaIdEESaIS2_EEPKmS8_RK12LinearParamsRS9_EEclES6_S8_S8_SB_SC_, symObjAddr: 0xF0D0, symBinAddr: 0x10000F868, symSize: 0x80 }
  - { offset: 0x2B037, size: 0x8, addend: 0x0, symName: __ZNSt6vectorImSaImEE4dataEv, symObjAddr: 0xF0A8, symBinAddr: 0x10000F840, symSize: 0x28 }
  - { offset: 0x2B05D, size: 0x8, addend: 0x0, symName: __ZNSt17_Function_handlerIFvRKSt6vectorIS0_IdSaIdEESaIS2_EEPKmS8_RK12LinearParamsRS9_EZN16LinearRegression3fitES6_RKS2_mbEUlS6_S8_S8_SB_SC_E_E10_M_managerERSt9_Any_dataRKSJ_St18_Manager_operation, symObjAddr: 0xF024, symBinAddr: 0x10000F7BC, symSize: 0x84 }
  - { offset: 0x2B0A9, size: 0x8, addend: 0x0, symName: __ZNSt17_Function_handlerIFvRKSt6vectorIS0_IdSaIdEESaIS2_EEPKmS8_RK12LinearParamsRS9_EZN16LinearRegression3fitES6_RKS2_mbEUlS6_S8_S8_SB_SC_E_E9_M_invokeERKSt9_Any_dataS6_OS8_SM_SB_SC_, symObjAddr: 0xEF94, symBinAddr: 0x10000F72C, symSize: 0x90 }
  - { offset: 0x2B1E0, size: 0x8, addend: 0x0, symName: __ZNSt14_Function_base13_Base_managerIZN16LinearRegression3fitERKSt6vectorIS2_IdSaIdEESaIS4_EERKS4_mbEUlS8_PKmSC_RK12LinearParamsRSD_E_E15_M_init_functorIRSH_EEvRSt9_Any_dataOT_, symObjAddr: 0xEF60, symBinAddr: 0x10000F6F8, symSize: 0x34 }
  - { offset: 0x2B269, size: 0x8, addend: 0x0, symName: __ZNSt14_Function_base13_Base_managerIZN16LinearRegression3fitERKSt6vectorIS2_IdSaIdEESaIS4_EERKS4_mbEUlS8_PKmSC_RK12LinearParamsRSD_E_E21_M_not_empty_functionISH_EEbRKT_, symObjAddr: 0xEF4C, symBinAddr: 0x10000F6E4, symSize: 0x14 }
  - { offset: 0x2B298, size: 0x8, addend: 0x0, symName: __ZNSt6vectorImSaImEE6resizeEm, symObjAddr: 0xEE9C, symBinAddr: 0x10000F634, symSize: 0xB0 }
  - { offset: 0x2B2D3, size: 0x8, addend: 0x0, symName: __ZNSt6vectorIdSaIdEE14_M_fill_assignEmRKd, symObjAddr: 0xEC78, symBinAddr: 0x10000F410, symSize: 0x224 }
  - { offset: 0x2B539, size: 0x8, addend: 0x0, symName: __ZNSt6vectorIeSaIeEE6assignIN9__gnu_cxx17__normal_iteratorIPdS_IdSaIdEEEEvEEvT_S9_, symObjAddr: 0xEC44, symBinAddr: 0x10000F3DC, symSize: 0x34 }
  - { offset: 0x2B5BA, size: 0x8, addend: 0x0, symName: __ZN14StandardScaler5__STDIdEESt6vectorIT_SaIS2_EERKS1_IS4_SaIS4_EERKS4_, symObjAddr: 0xE9D8, symBinAddr: 0x10000F170, symSize: 0x26C }
  - { offset: 0x2B8BC, size: 0x8, addend: 0x0, symName: __ZN14StandardScaler6__meanIdEESt6vectorIT_SaIS2_EERKS1_IS4_SaIS4_EE, symObjAddr: 0xE7D0, symBinAddr: 0x10000EF68, symSize: 0x208 }
  - { offset: 0x2BBE5, size: 0x8, addend: 0x0, symName: __ZSt22__uninitialized_copy_aIN9__gnu_cxx17__normal_iteratorIPKSt6vectorIdSaIdEES2_IS4_SaIS4_EEEES9_PS4_S4_ET1_T_T0_SB_RSaIT2_E, symObjAddr: 0xE7A0, symBinAddr: 0x10000EF38, symSize: 0x30 }
  - { offset: 0x2BC77, size: 0x8, addend: 0x0, symName: __ZNKSt12_Vector_baseISt6vectorIdSaIdEESaIS2_EE19_M_get_Tp_allocatorEv, symObjAddr: 0xE78C, symBinAddr: 0x10000EF24, symSize: 0x14 }
  - { offset: 0x2BCA1, size: 0x8, addend: 0x0, symName: __ZNSt6vectorIdSaIdEE21_M_default_initializeEm, symObjAddr: 0xE73C, symBinAddr: 0x10000EED4, symSize: 0x50 }
  - { offset: 0x2BCD8, size: 0x8, addend: 0x0, symName: __ZN3Log6detail10print_implIJRA30_KcEEEvPS2_S5_DpOT_, symObjAddr: 0xE6D8, symBinAddr: 0x10000EE70, symSize: 0x64 }
  - { offset: 0x2BD76, size: 0x8, addend: 0x0, symName: __ZN3Log6detail10print_implIJRA19_KcEEEvPS2_S5_DpOT_, symObjAddr: 0xE674, symBinAddr: 0x10000EE0C, symSize: 0x64 }
  - { offset: 0x2BDF0, size: 0x8, addend: 0x0, symName: __ZN3Log6detail10print_implIJRA29_KcEEEvPS2_S5_DpOT_, symObjAddr: 0xE610, symBinAddr: 0x10000EDA8, symSize: 0x64 }
  - { offset: 0x2BE8E, size: 0x8, addend: 0x0, symName: __ZN3Log6detail10print_implIJRA68_KcEEEvPS2_S5_DpOT_, symObjAddr: 0xE5AC, symBinAddr: 0x10000ED44, symSize: 0x64 }
  - { offset: 0x2BF30, size: 0x8, addend: 0x0, symName: __ZNSt6vectorIdSaIdEE13_M_assign_auxIPKdEEvT_S5_St20forward_iterator_tag, symObjAddr: 0xE360, symBinAddr: 0x10000EAF8, symSize: 0x24C }
  - { offset: 0x2C14E, size: 0x8, addend: 0x0, symName: __ZNSt6vectorIeSaIeEE14_M_move_assignEOS1_St17integral_constantIbLb1EE, symObjAddr: 0xE2CC, symBinAddr: 0x10000EA64, symSize: 0x94 }
  - { offset: 0x2C233, size: 0x8, addend: 0x0, symName: __ZNSt12_Vector_baseIeSaIeEE17_Vector_impl_dataC1Ev, symObjAddr: 0xE2A0, symBinAddr: 0x10000EA38, symSize: 0x2C }
  - { offset: 0x2C25D, size: 0x8, addend: 0x0, symName: __ZNSt12_Vector_baseIeSaIeEE17_Vector_impl_dataC2Ev, symObjAddr: 0xE274, symBinAddr: 0x10000EA0C, symSize: 0x2C }
  - { offset: 0x2C2EE, size: 0x8, addend: 0x0, symName: __ZNSt12_Vector_baseIdSaIdEE17_Vector_impl_dataC2EOS2_, symObjAddr: 0xE204, symBinAddr: 0x10000E99C, symSize: 0x70 }
  - { offset: 0x2C36B, size: 0x8, addend: 0x0, symName: __ZNSt6vectorIdSaIdEE15_M_erase_at_endEPd, symObjAddr: 0xE17C, symBinAddr: 0x10000E914, symSize: 0x88 }
  - { offset: 0x2C400, size: 0x8, addend: 0x0, symName: __ZNSt6vectorIdSaIdEE17_M_default_appendEm, symObjAddr: 0xDF5C, symBinAddr: 0x10000E6F4, symSize: 0x220 }
  - { offset: 0x2C54E, size: 0x8, addend: 0x0, symName: __ZNSt11_Tuple_implILm0EJSt6vectorIS0_IdSaIdEESaIS2_EES4_S2_S2_EEC2IRS4_JS7_RS2_S8_EvEEOT_DpOT0_, symObjAddr: 0xDED4, symBinAddr: 0x10000E66C, symSize: 0x88 }
  - { offset: 0x2C672, size: 0x8, addend: 0x0, symName: __ZSt9make_pairIRSt6vectorIZ8split_xyRKS0_IS0_IdSaIdEESaIS2_EERKS2_djE6SampleSaIS9_EESC_ESt4pairINSt25__strip_reference_wrapperINSt5decayIT_E4typeEE6__typeENSE_INSF_IT0_E4typeEE6__typeEEOSG_OSL_, symObjAddr: 0xDE84, symBinAddr: 0x10000E61C, symSize: 0x50 }
  - { offset: 0x2C70B, size: 0x8, addend: 0x0, symName: __ZNSt6vectorIZ8split_xyRKS_IS_IdSaIdEESaIS1_EERKS1_djE6SampleSaIS8_EE9push_backERKS8_, symObjAddr: 0xDD68, symBinAddr: 0x10000E500, symSize: 0x11C }
  - { offset: 0x2C7F3, size: 0x8, addend: 0x0, symName: __ZNSt6vectorIZ8split_xyRKS_IS_IdSaIdEESaIS1_EERKS1_djE6SampleSaIS8_EEixEm, symObjAddr: 0xDCE4, symBinAddr: 0x10000E47C, symSize: 0x84 }
  - { offset: 0x2C84B, size: 0x8, addend: 0x0, symName: __ZNSt6vectorImSaImEEixEm, symObjAddr: 0xDC60, symBinAddr: 0x10000E3F8, symSize: 0x84 }
  - { offset: 0x2C89D, size: 0x8, addend: 0x0, symName: __ZSt22__uninitialized_copy_aIN9__gnu_cxx17__normal_iteratorIPKZ8split_xyRKSt6vectorIS2_IdSaIdEESaIS4_EERKS4_djE6SampleS2_ISB_SaISB_EEEESG_PSB_SB_ET1_T_T0_SI_RSaIT2_E, symObjAddr: 0xDC30, symBinAddr: 0x10000E3C8, symSize: 0x30 }
  - { offset: 0x2C91A, size: 0x8, addend: 0x0, symName: __ZNKSt6vectorIZ8split_xyRKS_IS_IdSaIdEESaIS1_EERKS1_djE6SampleSaIS8_EE3endEv, symObjAddr: 0xDC00, symBinAddr: 0x10000E398, symSize: 0x30 }
  - { offset: 0x2C96E, size: 0x8, addend: 0x0, symName: __ZNKSt6vectorIZ8split_xyRKS_IS_IdSaIdEESaIS1_EERKS1_djE6SampleSaIS8_EE5beginEv, symObjAddr: 0xDBD4, symBinAddr: 0x10000E36C, symSize: 0x2C }
  - { offset: 0x2C9F8, size: 0x8, addend: 0x0, symName: __ZNSt12_Vector_baseIZ8split_xyRKSt6vectorIS0_IdSaIdEESaIS2_EERKS2_djE6SampleSaIS9_EEC2EmRKSA_, symObjAddr: 0xDB80, symBinAddr: 0x10000E318, symSize: 0x54 }
  - { offset: 0x2CA45, size: 0x8, addend: 0x0, symName: __ZNKSt12_Vector_baseIZ8split_xyRKSt6vectorIS0_IdSaIdEESaIS2_EERKS2_djE6SampleSaIS9_EE19_M_get_Tp_allocatorEv, symObjAddr: 0xDB6C, symBinAddr: 0x10000E304, symSize: 0x14 }
  - { offset: 0x2CA6F, size: 0x8, addend: 0x0, symName: __ZNSt6vectorIZ8split_xyRKS_IS_IdSaIdEESaIS1_EERKS1_djE6SampleSaIS8_EE12emplace_backIJS8_EEERS8_DpOT_, symObjAddr: 0xDA68, symBinAddr: 0x10000E200, symSize: 0x104 }
  - { offset: 0x2CBD4, size: 0x8, addend: 0x0, symName: __ZSt22__uninitialized_copy_aIN9__gnu_cxx17__normal_iteratorIPKdSt6vectorIdSaIdEEEES7_PddET1_T_T0_S9_RSaIT2_E, symObjAddr: 0xDA38, symBinAddr: 0x10000E1D0, symSize: 0x30 }
  - { offset: 0x2CC66, size: 0x8, addend: 0x0, symName: __ZNKSt12_Vector_baseIdSaIdEE19_M_get_Tp_allocatorEv, symObjAddr: 0xDA24, symBinAddr: 0x10000E1BC, symSize: 0x14 }
  - { offset: 0x2CC8C, size: 0x8, addend: 0x0, symName: __ZNSt6vectorIZ8split_xyRKS_IS_IdSaIdEESaIS1_EERKS1_djE6SampleSaIS8_EE11_S_relocateEPS8_SB_SB_RS9_, symObjAddr: 0xD9F0, symBinAddr: 0x10000E188, symSize: 0x34 }
  - { offset: 0x2CCED, size: 0x8, addend: 0x0, symName: __ZNSt12_Vector_baseIZ8split_xyRKSt6vectorIS0_IdSaIdEESaIS2_EERKS2_djE6SampleSaIS9_EE11_M_allocateEm, symObjAddr: 0xD9A0, symBinAddr: 0x10000E138, symSize: 0x50 }
  - { offset: 0x2CD55, size: 0x8, addend: 0x0, symName: __ZNKSt6vectorIZ8split_xyRKS_IS_IdSaIdEESaIS1_EERKS1_djE6SampleSaIS8_EE4sizeEv, symObjAddr: 0xD960, symBinAddr: 0x10000E0F8, symSize: 0x40 }
  - { offset: 0x2CD90, size: 0x8, addend: 0x0, symName: __ZNKSt6vectorIZ8split_xyRKS_IS_IdSaIdEESaIS1_EERKS1_djE6SampleSaIS8_EE8capacityEv, symObjAddr: 0xD920, symBinAddr: 0x10000E0B8, symSize: 0x40 }
  - { offset: 0x2CDCB, size: 0x8, addend: 0x0, symName: __ZNKSt6vectorIZ8split_xyRKS_IS_IdSaIdEESaIS1_EERKS1_djE6SampleSaIS8_EE8max_sizeEv, symObjAddr: 0xD900, symBinAddr: 0x10000E098, symSize: 0x20 }
  - { offset: 0x2CE30, size: 0x8, addend: 0x0, symName: __ZNSt12_Vector_baseIZ8split_xyRKSt6vectorIS0_IdSaIdEESaIS2_EERKS2_djE6SampleSaIS9_EE19_M_get_Tp_allocatorEv, symObjAddr: 0xD8EC, symBinAddr: 0x10000E084, symSize: 0x14 }
  - { offset: 0x2CE5A, size: 0x8, addend: 0x0, symName: __ZNSt12_Vector_baseIZ8split_xyRKSt6vectorIS0_IdSaIdEESaIS2_EERKS2_djE6SampleSaIS9_EE13_M_deallocateEPS9_m, symObjAddr: 0xD894, symBinAddr: 0x10000E02C, symSize: 0x58 }
  - { offset: 0x2CEF6, size: 0x8, addend: 0x0, symName: __ZNSt15__new_allocatorIZ8split_xyRKSt6vectorIS0_IdSaIdEESaIS2_EERKS2_djE6SampleED2Ev, symObjAddr: 0xD880, symBinAddr: 0x10000E018, symSize: 0x14 }
  - { offset: 0x2CF36, size: 0x8, addend: 0x0, symName: __ZNSt12_Vector_baseIZ8split_xyRKSt6vectorIS0_IdSaIdEESaIS2_EERKS2_djE6SampleSaIS9_EE17_Vector_impl_dataC2Ev, symObjAddr: 0xD854, symBinAddr: 0x10000DFEC, symSize: 0x2C }
  - { offset: 0x2CF6E, size: 0x8, addend: 0x0, symName: __ZN3Log6detail10print_implIJRA4_KcmRA2_S2_RNSt7__cxx1112basic_stringIcSt11char_traitsIcESaIcEEEEEEvPS2_SE_DpOT_, symObjAddr: 0xD7B4, symBinAddr: 0x10000DF4C, symSize: 0xA0 }
  - { offset: 0x2D0CD, size: 0x8, addend: 0x0, symName: __ZNSt7__cxx1112basic_stringIcSt11char_traitsIcESaIcEE12_M_constructEmc, symObjAddr: 0xD704, symBinAddr: 0x10000DE9C, symSize: 0xB0 }
  - { offset: 0x2D139, size: 0x8, addend: 0x0, symName: __ZN3Log6detail10print_implIJRA20_KcEEEvPS2_S5_DpOT_, symObjAddr: 0xD6A0, symBinAddr: 0x10000DE38, symSize: 0x64 }
  - { offset: 0x2D1D7, size: 0x8, addend: 0x0, symName: __ZSt13__max_elementIN9__gnu_cxx17__normal_iteratorIPKdSt6vectorIdSaIdEEEENS0_5__ops15_Iter_less_iterEET_SA_SA_T0_, symObjAddr: 0xD5C4, symBinAddr: 0x10000DD5C, symSize: 0xDC }
  - { offset: 0x2D349, size: 0x8, addend: 0x0, symName: __ZN3Log6detail10print_implIJRA6_KcmRA7_S2_EEEvPS2_S7_DpOT_, symObjAddr: 0xD538, symBinAddr: 0x10000DCD0, symSize: 0x8C }
  - { offset: 0x2D426, size: 0x8, addend: 0x0, symName: __ZN3Log6detail10print_implIJRA6_KcmRA12_S2_EEEvPS2_S7_DpOT_, symObjAddr: 0xD4AC, symBinAddr: 0x10000DC44, symSize: 0x8C }
  - { offset: 0x2D573, size: 0x8, addend: 0x0, symName: __ZNSt6vectorIS_IdSaIdEESaIS1_EE12emplace_backIJS1_EEERS1_DpOT_, symObjAddr: 0xD3A8, symBinAddr: 0x10000DB40, symSize: 0x104 }
  - { offset: 0x2D6B7, size: 0x8, addend: 0x0, symName: __ZNSt6vectorIdSaIdEE21_M_range_initialize_nIPKdS4_EEvT_T0_m, symObjAddr: 0xD2F0, symBinAddr: 0x10000DA88, symSize: 0xB8 }
  - { offset: 0x2D758, size: 0x8, addend: 0x0, symName: __ZNKSt16initializer_listIdE4sizeEv, symObjAddr: 0xD2D8, symBinAddr: 0x10000DA70, symSize: 0x18 }
  - { offset: 0x2D782, size: 0x8, addend: 0x0, symName: __ZNKSt16initializer_listIdE3endEv, symObjAddr: 0xD2A0, symBinAddr: 0x10000DA38, symSize: 0x38 }
  - { offset: 0x2D7AC, size: 0x8, addend: 0x0, symName: __ZNKSt16initializer_listIdE5beginEv, symObjAddr: 0xD288, symBinAddr: 0x10000DA20, symSize: 0x18 }
  - { offset: 0x2D7D6, size: 0x8, addend: 0x0, symName: __ZNSt19normal_distributionIdEclISt23mersenne_twister_engineIjLm32ELm624ELm397ELm31ELj2567483615ELm11ELj4294967295ELm7ELj2636928640ELm15ELj4022730752ELm18ELj1812433253EEEEdRT_RKNS0_10param_typeE, symObjAddr: 0xD138, symBinAddr: 0x10000D8D0, symSize: 0x150 }
  - { offset: 0x2D8A5, size: 0x8, addend: 0x0, symName: __ZNSt25uniform_real_distributionIdEclISt23mersenne_twister_engineIjLm32ELm624ELm397ELm31ELj2567483615ELm11ELj4294967295ELm7ELj2636928640ELm15ELj4022730752ELm18ELj1812433253EEEEdRT_RKNS0_10param_typeE, symObjAddr: 0xD0C8, symBinAddr: 0x10000D860, symSize: 0x70 }
  - { offset: 0x2D95C, size: 0x8, addend: 0x0, symName: __ZNSt19normal_distributionIdE10param_typeC1Edd, symObjAddr: 0xD048, symBinAddr: 0x10000D7E0, symSize: 0x80 }
  - { offset: 0x2D9F9, size: 0x8, addend: 0x0, symName: __ZNSt25uniform_real_distributionIdE10param_typeC1Edd, symObjAddr: 0xCFC0, symBinAddr: 0x10000D758, symSize: 0x88 }
  - { offset: 0x2DAD5, size: 0x8, addend: 0x0, symName: __ZNSt6vectorIdSaIdEE12emplace_backIJdEEERdDpOT_, symObjAddr: 0xCEC8, symBinAddr: 0x10000D660, symSize: 0xF8 }
  - { offset: 0x2DC7A, size: 0x8, addend: 0x0, symName: __ZNKSt6vectorINSt7__cxx1112basic_stringIcSt11char_traitsIcESaIcEEESaIS5_EE3endEv, symObjAddr: 0xCE98, symBinAddr: 0x10000D630, symSize: 0x30 }
  - { offset: 0x2DCCE, size: 0x8, addend: 0x0, symName: __ZNKSt6vectorINSt7__cxx1112basic_stringIcSt11char_traitsIcESaIcEEESaIS5_EE5beginEv, symObjAddr: 0xCE6C, symBinAddr: 0x10000D604, symSize: 0x2C }
  - { offset: 0x2DD24, size: 0x8, addend: 0x0, symName: __ZSt12__str_concatINSt7__cxx1112basic_stringIcSt11char_traitsIcESaIcEEEET_PKNS6_10value_typeENS6_9size_typeES9_SA_RKNS6_14allocator_typeE, symObjAddr: 0xCD8C, symBinAddr: 0x10000D524, symSize: 0xE0 }
  - { offset: 0x2DE76, size: 0x8, addend: 0x0, symName: __ZNKSt7__cxx1112basic_stringIcSt11char_traitsIcESaIcEE13get_allocatorEv, symObjAddr: 0xCD3C, symBinAddr: 0x10000D4D4, symSize: 0x50 }
  - { offset: 0x2DEF9, size: 0x8, addend: 0x0, symName: __ZNSt6vectorIdSaIdEE14_M_move_assignEOS1_St17integral_constantIbLb1EE, symObjAddr: 0xCCA8, symBinAddr: 0x10000D440, symSize: 0x94 }
  - { offset: 0x2DF9F, size: 0x8, addend: 0x0, symName: __ZNSt6vectorIS_IdSaIdEESaIS1_EE14_M_move_assignEOS3_St17integral_constantIbLb1EE, symObjAddr: 0xCC14, symBinAddr: 0x10000D3AC, symSize: 0x94 }
  - { offset: 0x2E045, size: 0x8, addend: 0x0, symName: __ZNSt6vectorIdSaIdEE17_M_realloc_appendIJRKdEEEvDpOT_, symObjAddr: 0xCA20, symBinAddr: 0x10000D1B8, symSize: 0x1F4 }
  - { offset: 0x2E30D, size: 0x8, addend: 0x0, symName: __ZNSt6vectorIS_IdSaIdEESaIS1_EE17_M_realloc_appendIJRKS1_EEEvDpOT_, symObjAddr: 0xC7AC, symBinAddr: 0x10000CF44, symSize: 0x274 }
  - { offset: 0x2E597, size: 0x8, addend: 0x0, symName: __ZNSt6vectorIdSaIdEE11_S_relocateEPdS2_S2_RS0_, symObjAddr: 0xC778, symBinAddr: 0x10000CF10, symSize: 0x34 }
  - { offset: 0x2E5F8, size: 0x8, addend: 0x0, symName: __ZNSt12_Vector_baseIdSaIdEE11_M_allocateEm, symObjAddr: 0xC728, symBinAddr: 0x10000CEC0, symSize: 0x50 }
  - { offset: 0x2E660, size: 0x8, addend: 0x0, symName: __ZNKSt6vectorIdSaIdEE8capacityEv, symObjAddr: 0xC6E8, symBinAddr: 0x10000CE80, symSize: 0x40 }
  - { offset: 0x2E69B, size: 0x8, addend: 0x0, symName: __ZNKSt6vectorIdSaIdEE8max_sizeEv, symObjAddr: 0xC6C8, symBinAddr: 0x10000CE60, symSize: 0x20 }
  - { offset: 0x2E6C1, size: 0x8, addend: 0x0, symName: __ZNSt6vectorIS_IdSaIdEESaIS1_EE11_S_relocateEPS1_S4_S4_RS2_, symObjAddr: 0xC694, symBinAddr: 0x10000CE2C, symSize: 0x34 }
  - { offset: 0x2E722, size: 0x8, addend: 0x0, symName: __ZNSt12_Vector_baseISt6vectorIdSaIdEESaIS2_EE11_M_allocateEm, symObjAddr: 0xC644, symBinAddr: 0x10000CDDC, symSize: 0x50 }
  - { offset: 0x2E78A, size: 0x8, addend: 0x0, symName: __ZNKSt6vectorIS_IdSaIdEESaIS1_EE8capacityEv, symObjAddr: 0xC5F8, symBinAddr: 0x10000CD90, symSize: 0x4C }
  - { offset: 0x2E7C5, size: 0x8, addend: 0x0, symName: __ZNKSt6vectorIS_IdSaIdEESaIS1_EE8max_sizeEv, symObjAddr: 0xC5D8, symBinAddr: 0x10000CD70, symSize: 0x20 }
  - { offset: 0x2E7EF, size: 0x8, addend: 0x0, symName: __ZNSt12_Vector_baseIdSaIdEE13_M_deallocateEPdm, symObjAddr: 0xC580, symBinAddr: 0x10000CD18, symSize: 0x58 }
  - { offset: 0x2E88B, size: 0x8, addend: 0x0, symName: __ZNSt12_Vector_baseIdSaIdEE17_Vector_impl_dataC1Ev, symObjAddr: 0xC554, symBinAddr: 0x10000CCEC, symSize: 0x2C }
  - { offset: 0x2E8B5, size: 0x8, addend: 0x0, symName: __ZNSt12_Vector_baseIdSaIdEE17_Vector_impl_dataC2Ev, symObjAddr: 0xC528, symBinAddr: 0x10000CCC0, symSize: 0x2C }
  - { offset: 0x2E8F5, size: 0x8, addend: 0x0, symName: __ZNSt12_Vector_baseISt6vectorIdSaIdEESaIS2_EE17_Vector_impl_dataC1Ev, symObjAddr: 0xC4FC, symBinAddr: 0x10000CC94, symSize: 0x2C }
  - { offset: 0x2E91F, size: 0x8, addend: 0x0, symName: __ZNSt12_Vector_baseISt6vectorIdSaIdEESaIS2_EE17_Vector_impl_dataC2Ev, symObjAddr: 0xC4D0, symBinAddr: 0x10000CC68, symSize: 0x2C }
  - { offset: 0x2E945, size: 0x8, addend: 0x0, symName: __ZNSt24uniform_int_distributionImEclISt23mersenne_twister_engineIjLm32ELm624ELm397ELm31ELj2567483615ELm11ELj4294967295ELm7ELj2636928640ELm15ELj4022730752ELm18ELj1812433253EEEEmRT_RKNS0_10param_typeE, symObjAddr: 0xC394, symBinAddr: 0x10000CB2C, symSize: 0x13C }
  - { offset: 0x2EAD3, size: 0x8, addend: 0x0, symName: __ZNSt24uniform_int_distributionImE10param_typeC1Emm, symObjAddr: 0xC314, symBinAddr: 0x10000CAAC, symSize: 0x80 }
  - { offset: 0x2EB39, size: 0x8, addend: 0x0, symName: __ZNSt24uniform_int_distributionImEC1Ev, symObjAddr: 0xC2EC, symBinAddr: 0x10000CA84, symSize: 0x28 }
  - { offset: 0x2EB5B, size: 0x8, addend: 0x0, symName: __ZSt22__gen_two_uniform_intsImRSt23mersenne_twister_engineIjLm32ELm624ELm397ELm31ELj2567483615ELm11ELj4294967295ELm7ELj2636928640ELm15ELj4022730752ELm18ELj1812433253EEESt4pairIT_S4_ES4_S4_OT0_, symObjAddr: 0xC268, symBinAddr: 0x10000CA00, symSize: 0x84 }
  - { offset: 0x2EBCB, size: 0x8, addend: 0x0, symName: __ZSt9iter_swapIN9__gnu_cxx17__normal_iteratorIPmSt6vectorImSaImEEEES6_EvT_T0_, symObjAddr: 0xC240, symBinAddr: 0x10000C9D8, symSize: 0x28 }
  - { offset: 0x2EC5A, size: 0x8, addend: 0x0, symName: __ZNSt24uniform_int_distributionImEclISt23mersenne_twister_engineIjLm32ELm624ELm397ELm31ELj2567483615ELm11ELj4294967295ELm7ELj2636928640ELm15ELj4022730752ELm18ELj1812433253EEEEmRT_, symObjAddr: 0xC214, symBinAddr: 0x10000C9AC, symSize: 0x2C }
  - { offset: 0x2ECEC, size: 0x8, addend: 0x0, symName: __ZNSt24uniform_int_distributionImEC1Emm, symObjAddr: 0xC1E4, symBinAddr: 0x10000C97C, symSize: 0x30 }
  - { offset: 0x2ED28, size: 0x8, addend: 0x0, symName: __ZNSt23mersenne_twister_engineIjLm32ELm624ELm397ELm31ELj2567483615ELm11ELj4294967295ELm7ELj2636928640ELm15ELj4022730752ELm18ELj1812433253EE4seedEj, symObjAddr: 0xC118, symBinAddr: 0x10000C8B0, symSize: 0xCC }
  - { offset: 0x2EE0A, size: 0x8, addend: 0x0, symName: __ZNSt12_Vector_baseImSaImEE19_M_get_Tp_allocatorEv, symObjAddr: 0xC104, symBinAddr: 0x10000C89C, symSize: 0x14 }
  - { offset: 0x2EE34, size: 0x8, addend: 0x0, symName: __ZNSt6vectorImSaImEE21_M_default_initializeEm, symObjAddr: 0xC0B4, symBinAddr: 0x10000C84C, symSize: 0x50 }
  - { offset: 0x2EEA5, size: 0x8, addend: 0x0, symName: __ZNSt12_Vector_baseImSaImEEC2EmRKS0_, symObjAddr: 0xC060, symBinAddr: 0x10000C7F8, symSize: 0x54 }
  - { offset: 0x2EED9, size: 0x8, addend: 0x0, symName: __ZNSt6vectorImSaImEE17_S_check_init_lenEmRKS0_, symObjAddr: 0xBFDC, symBinAddr: 0x10000C774, symSize: 0x84 }
  - { offset: 0x2EFA9, size: 0x8, addend: 0x0, symName: __ZNSt15__new_allocatorImED2Ev, symObjAddr: 0xBFC8, symBinAddr: 0x10000C760, symSize: 0x14 }
  - { offset: 0x2EFE5, size: 0x8, addend: 0x0, symName: __ZNSt6vectorINSt7__cxx1112basic_stringIcSt11char_traitsIcESaIcEEESaIS5_EE17_M_realloc_appendIJRKS5_EEEvDpOT_, symObjAddr: 0xBD8C, symBinAddr: 0x10000C524, symSize: 0x23C }
  - { offset: 0x2F2AE, size: 0x8, addend: 0x0, symName: __ZNSt12_Vector_baseINSt7__cxx1112basic_stringIcSt11char_traitsIcESaIcEEESaIS5_EE19_M_get_Tp_allocatorEv, symObjAddr: 0xBD78, symBinAddr: 0x10000C510, symSize: 0x14 }
  - { offset: 0x2F2D8, size: 0x8, addend: 0x0, symName: __ZNSt12_Vector_baseINSt7__cxx1112basic_stringIcSt11char_traitsIcESaIcEEESaIS5_EE13_M_deallocateEPS5_m, symObjAddr: 0xBD20, symBinAddr: 0x10000C4B8, symSize: 0x58 }
  - { offset: 0x2F374, size: 0x8, addend: 0x0, symName: __ZNSt15__new_allocatorINSt7__cxx1112basic_stringIcSt11char_traitsIcESaIcEEEED2Ev, symObjAddr: 0xBD0C, symBinAddr: 0x10000C4A4, symSize: 0x14 }
  - { offset: 0x2F3B4, size: 0x8, addend: 0x0, symName: __ZNSt12_Vector_baseINSt7__cxx1112basic_stringIcSt11char_traitsIcESaIcEEESaIS5_EE17_Vector_impl_dataC2Ev, symObjAddr: 0xBCE0, symBinAddr: 0x10000C478, symSize: 0x2C }
  - { offset: 0x2F3F0, size: 0x8, addend: 0x0, symName: __ZNKSt13_Rb_tree_nodeISt4pairIKNSt7__cxx1112basic_stringIcSt11char_traitsIcESaIcEEES6_EE9_M_valptrEv, symObjAddr: 0xBCC0, symBinAddr: 0x10000C458, symSize: 0x20 }
  - { offset: 0x2F416, size: 0x8, addend: 0x0, symName: __ZN3Log6detail10print_implIJRKNSt7__cxx1112basic_stringIcSt11char_traitsIcESaIcEEEEEEvPKcSB_DpOT_, symObjAddr: 0xBC5C, symBinAddr: 0x10000C3F4, symSize: 0x64 }
  - { offset: 0x2F4B4, size: 0x8, addend: 0x0, symName: __ZN3Log6detail10print_implIJRA40_KcEEEvPS2_S5_DpOT_, symObjAddr: 0xBBF8, symBinAddr: 0x10000C390, symSize: 0x64 }
  - { offset: 0x2F556, size: 0x8, addend: 0x0, symName: __ZNKSt8_Rb_treeINSt7__cxx1112basic_stringIcSt11char_traitsIcESaIcEEESt4pairIKS5_S5_ESt10_Select1stIS8_ESt4lessIS5_ESaIS8_EE3endEv, symObjAddr: 0xBBCC, symBinAddr: 0x10000C364, symSize: 0x2C }
  - { offset: 0x2F580, size: 0x8, addend: 0x0, symName: __ZNKSt8_Rb_treeINSt7__cxx1112basic_stringIcSt11char_traitsIcESaIcEEESt4pairIKS5_S5_ESt10_Select1stIS8_ESt4lessIS5_ESaIS8_EE4findERS7_, symObjAddr: 0xBB1C, symBinAddr: 0x10000C2B4, symSize: 0xB0 }
  - { offset: 0x2F5CC, size: 0x8, addend: 0x0, symName: __ZNKSt8_Rb_treeINSt7__cxx1112basic_stringIcSt11char_traitsIcESaIcEEESt4pairIKS5_S5_ESt10_Select1stIS8_ESt4lessIS5_ESaIS8_EE13_M_begin_nodeEv, symObjAddr: 0xBAE0, symBinAddr: 0x10000C278, symSize: 0x3C }
  - { offset: 0x2F607, size: 0x8, addend: 0x0, symName: __ZNSt8_Rb_treeINSt7__cxx1112basic_stringIcSt11char_traitsIcESaIcEEESt4pairIKS5_S5_ESt10_Select1stIS8_ESt4lessIS5_ESaIS8_EE8_M_eraseEPSt13_Rb_tree_nodeIS8_E, symObjAddr: 0xBA7C, symBinAddr: 0x10000C214, symSize: 0x64 }
  - { offset: 0x2F67C, size: 0x8, addend: 0x0, symName: __ZNSt8_Rb_treeINSt7__cxx1112basic_stringIcSt11char_traitsIcESaIcEEESt4pairIKS5_S5_ESt10_Select1stIS8_ESt4lessIS5_ESaIS8_EE22_M_insert_range_uniqueIPKS8_EENSt9enable_ifIXsrSt7is_sameIS8_NSt15iterator_traitsIT_E10value_typeEE5valueEvE4typeESL_SL_, symObjAddr: 0xB9FC, symBinAddr: 0x10000C194, symSize: 0x80 }
  - { offset: 0x2F6E2, size: 0x8, addend: 0x0, symName: __ZNKSt16initializer_listISt4pairIKNSt7__cxx1112basic_stringIcSt11char_traitsIcESaIcEEES6_EE3endEv, symObjAddr: 0xB9C4, symBinAddr: 0x10000C15C, symSize: 0x38 }
  - { offset: 0x2F70C, size: 0x8, addend: 0x0, symName: __ZNKSt16initializer_listISt4pairIKNSt7__cxx1112basic_stringIcSt11char_traitsIcESaIcEEES6_EE5beginEv, symObjAddr: 0xB9AC, symBinAddr: 0x10000C144, symSize: 0x18 }
  - { offset: 0x2F76C, size: 0x8, addend: 0x0, symName: __ZNSt8_Rb_treeINSt7__cxx1112basic_stringIcSt11char_traitsIcESaIcEEESt4pairIKS5_S5_ESt10_Select1stIS8_ESt4lessIS5_ESaIS8_EEC1ERKSC_RKSD_, symObjAddr: 0xB934, symBinAddr: 0x10000C0CC, symSize: 0x78 }
  - { offset: 0x2F870, size: 0x8, addend: 0x0, symName: __ZNSt15__new_allocatorISt4pairIKNSt7__cxx1112basic_stringIcSt11char_traitsIcESaIcEEES6_EED2Ev, symObjAddr: 0xB920, symBinAddr: 0x10000C0B8, symSize: 0x14 }
  - { offset: 0x2F8A8, size: 0x8, addend: 0x0, symName: __ZN3Log6detail10print_implIJRA54_KcEEEvPS2_S5_DpOT_, symObjAddr: 0xB8BC, symBinAddr: 0x10000C054, symSize: 0x64 }
  - { offset: 0x2F946, size: 0x8, addend: 0x0, symName: __ZN3Log6detail10print_implIJRA51_KcEEEvPS2_S5_DpOT_, symObjAddr: 0xB858, symBinAddr: 0x10000BFF0, symSize: 0x64 }
  - { offset: 0x2F9E4, size: 0x8, addend: 0x0, symName: __ZN3Log6detail10print_implIJRA46_KcEEEvPS2_S5_DpOT_, symObjAddr: 0xB7F4, symBinAddr: 0x10000BF8C, symSize: 0x64 }
  - { offset: 0x2FA82, size: 0x8, addend: 0x0, symName: __ZN3Log6detail10print_implIJRA66_KcEEEvPS2_S5_DpOT_, symObjAddr: 0xB790, symBinAddr: 0x10000BF28, symSize: 0x64 }
  - { offset: 0x2FB20, size: 0x8, addend: 0x0, symName: __ZN3Log6detail10print_implIJRA16_KcEEEvPS2_S5_DpOT_, symObjAddr: 0xB72C, symBinAddr: 0x10000BEC4, symSize: 0x64 }
  - { offset: 0x2FBE2, size: 0x8, addend: 0x0, symName: __ZSt22__uninitialized_copy_aIN9__gnu_cxx17__normal_iteratorIPKeSt6vectorIeSaIeEEEES7_PeeET1_T_T0_S9_RSaIT2_E, symObjAddr: 0xB6FC, symBinAddr: 0x10000BE94, symSize: 0x30 }
  - { offset: 0x2FC74, size: 0x8, addend: 0x0, symName: __ZNKSt12_Vector_baseIeSaIeEE19_M_get_Tp_allocatorEv, symObjAddr: 0xB6E8, symBinAddr: 0x10000BE80, symSize: 0x14 }
  - { offset: 0x2FC9E, size: 0x8, addend: 0x0, symName: __ZNSt12_Vector_baseISt6vectorIeSaIeEESaIS2_EE13_M_deallocateEPS2_m, symObjAddr: 0xB690, symBinAddr: 0x10000BE28, symSize: 0x58 }
  - { offset: 0x2FD43, size: 0x8, addend: 0x0, symName: __ZNSt12_Vector_baseISt6vectorIeSaIeEESaIS2_EE19_M_get_Tp_allocatorEv, symObjAddr: 0xB67C, symBinAddr: 0x10000BE14, symSize: 0x14 }
  - { offset: 0x2FD6D, size: 0x8, addend: 0x0, symName: __ZNSt6vectorIS_IeSaIeEESaIS1_EE18_M_fill_initializeEmRKS1_, symObjAddr: 0xB624, symBinAddr: 0x10000BDBC, symSize: 0x58 }
  - { offset: 0x2FDEF, size: 0x8, addend: 0x0, symName: __ZNSt12_Vector_baseISt6vectorIeSaIeEESaIS2_EEC2EmRKS3_, symObjAddr: 0xB5D0, symBinAddr: 0x10000BD68, symSize: 0x54 }
  - { offset: 0x2FE23, size: 0x8, addend: 0x0, symName: __ZNSt6vectorIS_IeSaIeEESaIS1_EE17_S_check_init_lenEmRKS2_, symObjAddr: 0xB54C, symBinAddr: 0x10000BCE4, symSize: 0x84 }
  - { offset: 0x2FEF3, size: 0x8, addend: 0x0, symName: __ZNSt15__new_allocatorISt6vectorIeSaIeEEED2Ev, symObjAddr: 0xB538, symBinAddr: 0x10000BCD0, symSize: 0x14 }
  - { offset: 0x2FF2F, size: 0x8, addend: 0x0, symName: __ZNSt12_Vector_baseIeSaIeEE13_M_deallocateEPem, symObjAddr: 0xB4E0, symBinAddr: 0x10000BC78, symSize: 0x58 }
  - { offset: 0x3000F, size: 0x8, addend: 0x0, symName: __ZNSt12_Vector_baseIeSaIeEE19_M_get_Tp_allocatorEv, symObjAddr: 0xB4CC, symBinAddr: 0x10000BC64, symSize: 0x14 }
  - { offset: 0x30039, size: 0x8, addend: 0x0, symName: __ZNSt6vectorIeSaIeEE18_M_fill_initializeEmRKe, symObjAddr: 0xB474, symBinAddr: 0x10000BC0C, symSize: 0x58 }
  - { offset: 0x300BB, size: 0x8, addend: 0x0, symName: __ZNSt12_Vector_baseIeSaIeEEC2EmRKS0_, symObjAddr: 0xB420, symBinAddr: 0x10000BBB8, symSize: 0x54 }
  - { offset: 0x300EF, size: 0x8, addend: 0x0, symName: __ZNSt6vectorIeSaIeEE17_S_check_init_lenEmRKS0_, symObjAddr: 0xB39C, symBinAddr: 0x10000BB34, symSize: 0x84 }
  - { offset: 0x301BF, size: 0x8, addend: 0x0, symName: __ZNSt15__new_allocatorIeED2Ev, symObjAddr: 0xB388, symBinAddr: 0x10000BB20, symSize: 0x14 }
  - { offset: 0x301F7, size: 0x8, addend: 0x0, symName: __ZN3Log6detail10print_implIJRA18_KcEEEvPS2_S5_DpOT_, symObjAddr: 0xB324, symBinAddr: 0x10000BABC, symSize: 0x64 }
  - { offset: 0x30295, size: 0x8, addend: 0x0, symName: __ZN3Log6detail10print_implIJNSt7__cxx1112basic_stringIcSt11char_traitsIcESaIcEEEEEEvPKcS9_DpOT_, symObjAddr: 0xB2C0, symBinAddr: 0x10000BA58, symSize: 0x64 }
  - { offset: 0x30357, size: 0x8, addend: 0x0, symName: __ZN3Log6detail10print_implIJRA17_KcEEEvPS2_S5_DpOT_, symObjAddr: 0xB25C, symBinAddr: 0x10000B9F4, symSize: 0x64 }
  - { offset: 0x303F5, size: 0x8, addend: 0x0, symName: __ZN3Log6detail9print_argIdEEvRKT_, symObjAddr: 0xB1F8, symBinAddr: 0x10000B990, symSize: 0x64 }
  - { offset: 0x3044B, size: 0x8, addend: 0x0, symName: __ZN3Log6detail10print_implIJRA22_KcEEEvPS2_S5_DpOT_, symObjAddr: 0xB194, symBinAddr: 0x10000B92C, symSize: 0x64 }
  - { offset: 0x304ED, size: 0x8, addend: 0x0, symName: __ZNSt12_Vector_baseISt6vectorIdSaIdEESaIS2_EE13_M_deallocateEPS2_m, symObjAddr: 0xB13C, symBinAddr: 0x10000B8D4, symSize: 0x58 }
  - { offset: 0x305CD, size: 0x8, addend: 0x0, symName: __ZNSt12_Vector_baseISt6vectorIdSaIdEESaIS2_EE19_M_get_Tp_allocatorEv, symObjAddr: 0xB128, symBinAddr: 0x10000B8C0, symSize: 0x14 }
  - { offset: 0x305F7, size: 0x8, addend: 0x0, symName: __ZNSt6vectorIS_IdSaIdEESaIS1_EE18_M_fill_initializeEmRKS1_, symObjAddr: 0xB0D0, symBinAddr: 0x10000B868, symSize: 0x58 }
  - { offset: 0x30679, size: 0x8, addend: 0x0, symName: __ZNSt12_Vector_baseISt6vectorIdSaIdEESaIS2_EEC2EmRKS3_, symObjAddr: 0xB07C, symBinAddr: 0x10000B814, symSize: 0x54 }
  - { offset: 0x306AD, size: 0x8, addend: 0x0, symName: __ZNSt6vectorIS_IdSaIdEESaIS1_EE17_S_check_init_lenEmRKS2_, symObjAddr: 0xAFF8, symBinAddr: 0x10000B790, symSize: 0x84 }
  - { offset: 0x3077D, size: 0x8, addend: 0x0, symName: __ZNSt15__new_allocatorISt6vectorIdSaIdEEED2Ev, symObjAddr: 0xAFE4, symBinAddr: 0x10000B77C, symSize: 0x14 }
  - { offset: 0x307B9, size: 0x8, addend: 0x0, symName: __ZNSt6vectorIdSaIdEE18_M_fill_initializeEmRKd, symObjAddr: 0xAF8C, symBinAddr: 0x10000B724, symSize: 0x58 }
  - { offset: 0x3083B, size: 0x8, addend: 0x0, symName: __ZNSt12_Vector_baseIdSaIdEEC2EmRKS0_, symObjAddr: 0xAF38, symBinAddr: 0x10000B6D0, symSize: 0x54 }
  - { offset: 0x3086F, size: 0x8, addend: 0x0, symName: __ZNSt6vectorIdSaIdEE17_S_check_init_lenEmRKS0_, symObjAddr: 0xAEB4, symBinAddr: 0x10000B64C, symSize: 0x84 }
  - { offset: 0x30960, size: 0x8, addend: 0x0, symName: __ZNSt12_Vector_baseIdSaIdEE19_M_get_Tp_allocatorEv, symObjAddr: 0xAEA0, symBinAddr: 0x10000B638, symSize: 0x14 }
  - { offset: 0x309B2, size: 0x8, addend: 0x0, symName: __ZNSt12_Vector_baseIdSaIdEEC2ERKS0_, symObjAddr: 0xAE78, symBinAddr: 0x10000B610, symSize: 0x28 }
  - { offset: 0x309FB, size: 0x8, addend: 0x0, symName: __ZNSt15__new_allocatorIdED2Ev, symObjAddr: 0xAE64, symBinAddr: 0x10000B5FC, symSize: 0x14 }
  - { offset: 0x30A80, size: 0x8, addend: 0x0, symName: __ZNSt7__cxx1112basic_stringIcSt11char_traitsIcESaIcEE12_M_constructIPKcEEvT_S8_St20forward_iterator_tag, symObjAddr: 0xAD84, symBinAddr: 0x10000B51C, symSize: 0xE0 }
  - { offset: 0x30B7E, size: 0x8, addend: 0x0, symName: __ZZNSt7__cxx1112basic_stringIcSt11char_traitsIcESaIcEE12_M_constructIPKcEEvT_S8_St20forward_iterator_tagEN6_GuardC1EPS4_, symObjAddr: 0xAD2C, symBinAddr: 0x10000B4C4, symSize: 0x24 }
  - { offset: 0x30BB1, size: 0x8, addend: 0x0, symName: __ZZNSt7__cxx1112basic_stringIcSt11char_traitsIcESaIcEE12_M_constructIPKcEEvT_S8_St20forward_iterator_tagEN6_GuardD1Ev, symObjAddr: 0xAD50, symBinAddr: 0x10000B4E8, symSize: 0x34 }
  - { offset: 0x30CC1, size: 0x8, addend: 0x0, symName: __ZNSt7__cxx1112basic_stringIcSt11char_traitsIcESaIcEE12_Alloc_hiderC1EPcRKS3_, symObjAddr: 0xACDC, symBinAddr: 0x10000B474, symSize: 0x50 }
  - { offset: 0x30D6B, size: 0x8, addend: 0x0, symName: __ZNSt15__new_allocatorIcED2Ev, symObjAddr: 0xACC8, symBinAddr: 0x10000B460, symSize: 0x14 }
  - { offset: 0x30DA7, size: 0x8, addend: 0x0, symName: __ZNKSt7__cxx1112basic_stringIcSt11char_traitsIcESaIcEE4sizeEv, symObjAddr: 0xAC78, symBinAddr: 0x10000B410, symSize: 0x50 }
  - { offset: 0x30DE2, size: 0x8, addend: 0x0, symName: __ZNKSt7__cxx1112basic_stringIcSt11char_traitsIcESaIcEE4dataEv, symObjAddr: 0xAC5C, symBinAddr: 0x10000B3F4, symSize: 0x1C }
  - { offset: 0x30E38, size: 0x8, addend: 0x0, symName: __ZNSt7__cxx1112basic_stringIcSt11char_traitsIcESaIcEE9_M_lengthEm, symObjAddr: 0xAC38, symBinAddr: 0x10000B3D0, symSize: 0x24 }
  - { offset: 0x30E72, size: 0x8, addend: 0x0, symName: __ZNSt7__cxx1112basic_stringIcSt11char_traitsIcESaIcEE11_M_capacityEm, symObjAddr: 0xAC14, symBinAddr: 0x10000B3AC, symSize: 0x24 }
  - { offset: 0x30EAD, size: 0x8, addend: 0x0, symName: __ZNSt7__cxx1112basic_stringIcSt11char_traitsIcESaIcEE7_M_dataEPc, symObjAddr: 0xABF0, symBinAddr: 0x10000B388, symSize: 0x24 }
  - { offset: 0x30EE7, size: 0x8, addend: 0x0, symName: __ZNKSt7__cxx1112basic_stringIcSt11char_traitsIcESaIcEE6lengthEv, symObjAddr: 0xABD4, symBinAddr: 0x10000B36C, symSize: 0x1C }
  - { offset: 0x30F11, size: 0x8, addend: 0x0, symName: __ZNKSt7__cxx1112basic_stringIcSt11char_traitsIcESaIcEE11_M_is_localEv, symObjAddr: 0xAB6C, symBinAddr: 0x10000B304, symSize: 0x68 }
  - { offset: 0x30F60, size: 0x8, addend: 0x0, symName: __ZNSt7__cxx1112basic_stringIcSt11char_traitsIcESaIcEE16_M_get_allocatorEv, symObjAddr: 0xAB58, symBinAddr: 0x10000B2F0, symSize: 0x14 }
  - { offset: 0x30F8E, size: 0x8, addend: 0x0, symName: __ZNSt7__cxx1112basic_stringIcSt11char_traitsIcESaIcEE7reserveEm, symObjAddr: 0xAAB0, symBinAddr: 0x10000B248, symSize: 0xA8 }
  - { offset: 0x30FEB, size: 0x8, addend: 0x0, symName: __ZNSt7__cxx1112basic_stringIcSt11char_traitsIcESaIcEE10_M_disposeEv, symObjAddr: 0xAA68, symBinAddr: 0x10000B200, symSize: 0x48 }
  - { offset: 0x31015, size: 0x8, addend: 0x0, symName: __ZNSt7__cxx1112basic_stringIcSt11char_traitsIcESaIcEE13_M_set_lengthEm, symObjAddr: 0xAA20, symBinAddr: 0x10000B1B8, symSize: 0x48 }
  - { offset: 0x3109A, size: 0x8, addend: 0x0, symName: __ZNSt7__cxx1112basic_stringIcSt11char_traitsIcESaIcEE12_Alloc_hiderC1EPcOS3_, symObjAddr: 0xA9C8, symBinAddr: 0x10000B160, symSize: 0x58 }
  - { offset: 0x3114E, size: 0x8, addend: 0x0, symName: __ZNSt7__cxx1112basic_stringIcSt11char_traitsIcESaIcEE13_M_local_dataEv, symObjAddr: 0xA9A8, symBinAddr: 0x10000B140, symSize: 0x20 }
  - { offset: 0x31178, size: 0x8, addend: 0x0, symName: __ZNKSt7__cxx1112basic_stringIcSt11char_traitsIcESaIcEE7_M_dataEv, symObjAddr: 0xA990, symBinAddr: 0x10000B128, symSize: 0x18 }
  - { offset: 0x3119E, size: 0x8, addend: 0x0, symName: __ZN9__gnu_cxx11char_traitsIcE2eqERKcS3_, symObjAddr: 0xA960, symBinAddr: 0x10000B0F8, symSize: 0x30 }
  - { offset: 0x311D7, size: 0x8, addend: 0x0, symName: __ZN3Log7successIJRA32_KcEEEvDpOT_, symObjAddr: 0xA924, symBinAddr: 0x10000B0BC, symSize: 0x3C }
  - { offset: 0x31237, size: 0x8, addend: 0x0, symName: __ZSt3getILm3EJSt6vectorIS0_IdSaIdEESaIS2_EES4_S2_S2_EERNSt13tuple_elementIXT_ESt5tupleIJDpT0_EEE4typeERS9_, symObjAddr: 0xA908, symBinAddr: 0x10000B0A0, symSize: 0x1C }
  - { offset: 0x3128B, size: 0x8, addend: 0x0, symName: __ZSt3getILm2EJSt6vectorIS0_IdSaIdEESaIS2_EES4_S2_S2_EERNSt13tuple_elementIXT_ESt5tupleIJDpT0_EEE4typeERS9_, symObjAddr: 0xA8EC, symBinAddr: 0x10000B084, symSize: 0x1C }
  - { offset: 0x312DF, size: 0x8, addend: 0x0, symName: __ZSt3getILm1EJSt6vectorIS0_IdSaIdEESaIS2_EES4_S2_S2_EERNSt13tuple_elementIXT_ESt5tupleIJDpT0_EEE4typeERS9_, symObjAddr: 0xA8D0, symBinAddr: 0x10000B068, symSize: 0x1C }
  - { offset: 0x31333, size: 0x8, addend: 0x0, symName: __ZSt3getILm0EJSt6vectorIS0_IdSaIdEESaIS2_EES4_S2_S2_EERNSt13tuple_elementIXT_ESt5tupleIJDpT0_EEE4typeERS9_, symObjAddr: 0xA8B4, symBinAddr: 0x10000B04C, symSize: 0x1C }
  - { offset: 0x31381, size: 0x8, addend: 0x0, symName: __ZN3Log4infoIJRA23_KcmRA5_S1_EEEvDpOT_, symObjAddr: 0xA850, symBinAddr: 0x10000AFE8, symSize: 0x64 }
  - { offset: 0x31457, size: 0x8, addend: 0x0, symName: __ZNKSt6vectorIS_IdSaIdEESaIS1_EE3endEv, symObjAddr: 0xA820, symBinAddr: 0x10000AFB8, symSize: 0x30 }
  - { offset: 0x314AB, size: 0x8, addend: 0x0, symName: __ZNKSt6vectorIS_IdSaIdEESaIS1_EE5beginEv, symObjAddr: 0xA7F4, symBinAddr: 0x10000AF8C, symSize: 0x2C }
  - { offset: 0x314FF, size: 0x8, addend: 0x0, symName: __ZNSt6vectorIS_IdSaIdEESaIS1_EEaSERKS3_, symObjAddr: 0xA45C, symBinAddr: 0x10000ABF4, symSize: 0x398 }
  - { offset: 0x316A4, size: 0x8, addend: 0x0, symName: __ZNSt6vectorIS_IdSaIdEESaIS1_EE5clearEv, symObjAddr: 0xA430, symBinAddr: 0x10000ABC8, symSize: 0x2C }
  - { offset: 0x316E8, size: 0x8, addend: 0x0, symName: __ZNSt12_Vector_baseImSaImEED2Ev, symObjAddr: 0xA3E0, symBinAddr: 0x10000AB78, symSize: 0x50 }
  - { offset: 0x31728, size: 0x8, addend: 0x0, symName: __ZNSt12_Vector_baseImSaImEE12_Vector_implC1Ev, symObjAddr: 0xA3A8, symBinAddr: 0x10000AB40, symSize: 0x38 }
  - { offset: 0x31794, size: 0x8, addend: 0x0, symName: __ZNKSt6vectorImSaImEE4sizeEv, symObjAddr: 0xA368, symBinAddr: 0x10000AB00, symSize: 0x40 }
  - { offset: 0x317CB, size: 0x8, addend: 0x0, symName: __ZSt13inner_productIN9__gnu_cxx17__normal_iteratorIPKdSt6vectorIdSaIdEEEENS1_IPdS6_EEdET1_T_SB_T0_SA_, symObjAddr: 0xA2CC, symBinAddr: 0x10000AA64, symSize: 0x9C }
  - { offset: 0x31947, size: 0x8, addend: 0x0, symName: __ZNSt6vectorIS_IdSaIdEESaIS1_EE3endEv, symObjAddr: 0xA29C, symBinAddr: 0x10000AA34, symSize: 0x30 }
  - { offset: 0x3199B, size: 0x8, addend: 0x0, symName: __ZNSt6vectorIS_IdSaIdEESaIS1_EE5beginEv, symObjAddr: 0xA270, symBinAddr: 0x10000AA08, symSize: 0x2C }
  - { offset: 0x319EB, size: 0x8, addend: 0x0, symName: __ZN3Log7successIJRA43_KcRdEEEvDpOT_, symObjAddr: 0xA220, symBinAddr: 0x10000A9B8, symSize: 0x50 }
  - { offset: 0x31A76, size: 0x8, addend: 0x0, symName: __ZN3Log5epochIJRKPKcRA7_S1_S4_RdEEEviiDpOT_, symObjAddr: 0xA0BC, symBinAddr: 0x10000A854, symSize: 0x164 }
  - { offset: 0x31B9A, size: 0x8, addend: 0x0, symName: __ZNSt6vectorIdSaIdEE4backEv, symObjAddr: 0xA020, symBinAddr: 0x10000A7B8, symSize: 0x9C }
  - { offset: 0x31C51, size: 0x8, addend: 0x0, symName: __ZNK15GradientDescentI12LinearParamsSt6vectorIS1_IdSaIdEESaIS3_EEE13get_l2_lambdaEv, symObjAddr: 0xA004, symBinAddr: 0x10000A79C, symSize: 0x1C }
  - { offset: 0x31C77, size: 0x8, addend: 0x0, symName: __ZSt13inner_productIN9__gnu_cxx17__normal_iteratorIPdSt6vectorIdSaIdEEEES6_dET1_T_S8_T0_S7_, symObjAddr: 0x9F68, symBinAddr: 0x10000A700, symSize: 0x9C }
  - { offset: 0x31DDD, size: 0x8, addend: 0x0, symName: __ZNSt6vectorIdSaIdEEaSERKS1_, symObjAddr: 0x9C20, symBinAddr: 0x10000A3B8, symSize: 0x348 }
  - { offset: 0x31F82, size: 0x8, addend: 0x0, symName: __ZN15GradientDescentI12LinearParamsSt6vectorIS1_IdSaIdEESaIS3_EEE4stepERS0_RKS5_St8functionIFvS9_PKmSC_RKS0_S7_EEm, symObjAddr: 0x98B8, symBinAddr: 0x10000A050, symSize: 0x368 }
  - { offset: 0x32076, size: 0x8, addend: 0x0, symName: __ZN12LinearParamsaSEOS_, symObjAddr: 0x9880, symBinAddr: 0x10000A018, symSize: 0x38 }
  - { offset: 0x320E1, size: 0x8, addend: 0x0, symName: __ZNSt8functionIFvRKSt6vectorIS0_IdSaIdEESaIS2_EEPKmS8_RK12LinearParamsRS9_EEC1IRZN16LinearRegression3fitES6_RKS2_mbEUlS6_S8_S8_SB_SC_E_vEEOT_, symObjAddr: 0x97E0, symBinAddr: 0x100009F78, symSize: 0xA0 }
  - { offset: 0x32179, size: 0x8, addend: 0x0, symName: __ZNSt14_Function_baseC2Ev, symObjAddr: 0x97BC, symBinAddr: 0x100009F54, symSize: 0x24 }
  - { offset: 0x3219F, size: 0x8, addend: 0x0, symName: __ZN15GradientDescentI12LinearParamsSt6vectorIS1_IdSaIdEESaIS3_EEE15shuffle_indicesEv, symObjAddr: 0x9748, symBinAddr: 0x100009EE0, symSize: 0x74 }
  - { offset: 0x321C9, size: 0x8, addend: 0x0, symName: __ZN15GradientDescentI12LinearParamsSt6vectorIS1_IdSaIdEESaIS3_EEE13set_n_samplesEm, symObjAddr: 0x96A0, symBinAddr: 0x100009E38, symSize: 0xA8 }
  - { offset: 0x3221E, size: 0x8, addend: 0x0, symName: __ZNSt6vectorIdSaIdEE5clearEv, symObjAddr: 0x9674, symBinAddr: 0x100009E0C, symSize: 0x2C }
  - { offset: 0x32248, size: 0x8, addend: 0x0, symName: __ZNSt6vectorIdSaIdEE6assignEmRKd, symObjAddr: 0x9644, symBinAddr: 0x100009DDC, symSize: 0x30 }
  - { offset: 0x32294, size: 0x8, addend: 0x0, symName: __ZN14StandardScaler9transformIdEESt6vectorIS1_IT_SaIS2_EESaIS4_EERKS6_, symObjAddr: 0x9470, symBinAddr: 0x100009C08, symSize: 0x1D4 }
  - { offset: 0x32435, size: 0x8, addend: 0x0, symName: __ZN14StandardScaler3fitIdEEvRKSt6vectorIS1_IT_SaIS2_EESaIS4_EE, symObjAddr: 0x9394, symBinAddr: 0x100009B2C, symSize: 0xDC }
  - { offset: 0x32498, size: 0x8, addend: 0x0, symName: __ZNKSt6vectorIS_IdSaIdEESaIS1_EE5emptyEv, symObjAddr: 0x933C, symBinAddr: 0x100009AD4, symSize: 0x58 }
  - { offset: 0x32559, size: 0x8, addend: 0x0, symName: __ZNSt6vectorIS_IdSaIdEESaIS1_EEC1ERKS3_, symObjAddr: 0x9228, symBinAddr: 0x1000099C0, symSize: 0x114 }
  - { offset: 0x32668, size: 0x8, addend: 0x0, symName: __ZSt13inner_productIN9__gnu_cxx17__normal_iteratorIPKdSt6vectorIdSaIdEEEES7_dET1_T_S9_T0_S8_, symObjAddr: 0x918C, symBinAddr: 0x100009924, symSize: 0x9C }
  - { offset: 0x32804, size: 0x8, addend: 0x0, symName: __ZNSt6vectorIdSaIdEEC1EmRKS0_, symObjAddr: 0x9124, symBinAddr: 0x1000098BC, symSize: 0x68 }
  - { offset: 0x32838, size: 0x8, addend: 0x0, symName: __ZN3Log4infoIJRA30_KcEEEvDpOT_, symObjAddr: 0x90E8, symBinAddr: 0x100009880, symSize: 0x3C }
  - { offset: 0x32892, size: 0x8, addend: 0x0, symName: __ZN3Log4infoIJRA19_KcEEEvDpOT_, symObjAddr: 0x90AC, symBinAddr: 0x100009844, symSize: 0x3C }
  - { offset: 0x328EC, size: 0x8, addend: 0x0, symName: __ZN3Log4infoIJRA29_KcEEEvDpOT_, symObjAddr: 0x9070, symBinAddr: 0x100009808, symSize: 0x3C }
  - { offset: 0x32946, size: 0x8, addend: 0x0, symName: __ZN3Log4infoIJRA68_KcEEEvDpOT_, symObjAddr: 0x9034, symBinAddr: 0x1000097CC, symSize: 0x3C }
  - { offset: 0x329A0, size: 0x8, addend: 0x0, symName: __ZN3Log4infoIJRA40_KcEEEvDpOT_, symObjAddr: 0x8FF8, symBinAddr: 0x100009790, symSize: 0x3C }
  - { offset: 0x329FA, size: 0x8, addend: 0x0, symName: __ZN3Log6headerIJRA17_KcEEEvDpOT_, symObjAddr: 0x8FBC, symBinAddr: 0x100009754, symSize: 0x3C }
  - { offset: 0x32A58, size: 0x8, addend: 0x0, symName: __ZNSt6vectorIdSaIdEEaSESt16initializer_listIdE, symObjAddr: 0x8F70, symBinAddr: 0x100009708, symSize: 0x4C }
  - { offset: 0x32A93, size: 0x8, addend: 0x0, symName: __ZNSt6vectorIeSaIeEEaSEOS1_, symObjAddr: 0x8F34, symBinAddr: 0x1000096CC, symSize: 0x3C }
  - { offset: 0x32B51, size: 0x8, addend: 0x0, symName: __ZN15GradientDescentI12LinearParamsSt6vectorIS1_IdSaIdEESaIS3_EEEC1ENS6_4TypeEdmd, symObjAddr: 0x8E38, symBinAddr: 0x1000095D0, symSize: 0xFC }
  - { offset: 0x32BBD, size: 0x8, addend: 0x0, symName: __ZN9OptimizerI12LinearParamsSt6vectorIS1_IdSaIdEESaIS3_EEEC2Ev, symObjAddr: 0x8E10, symBinAddr: 0x1000095A8, symSize: 0x28 }
  - { offset: 0x32BFD, size: 0x8, addend: 0x0, symName: __ZNSt12_Vector_baseIeSaIeEE12_Vector_implC1Ev, symObjAddr: 0x8DD8, symBinAddr: 0x100009570, symSize: 0x38 }
  - { offset: 0x32CD4, size: 0x8, addend: 0x0, symName: __ZNSt12_Vector_baseIdSaIdEE12_Vector_implC1EOS2_, symObjAddr: 0x8D78, symBinAddr: 0x100009510, symSize: 0x60 }
  - { offset: 0x32DA1, size: 0x8, addend: 0x0, symName: __ZNSt6vectorIdSaIdEE6resizeEm, symObjAddr: 0x8CC8, symBinAddr: 0x100009460, symSize: 0xB0 }
  - { offset: 0x32E39, size: 0x8, addend: 0x0, symName: __ZNSt5tupleIJSt6vectorIS0_IdSaIdEESaIS2_EES4_S2_S2_EEC1IJRS4_S7_RS2_S8_ELb1ELb1EEEDpOT_, symObjAddr: 0x8C68, symBinAddr: 0x100009400, symSize: 0x60 }
  - { offset: 0x32F59, size: 0x8, addend: 0x0, symName: __ZNSt6vectorIZ8split_xyRKS_IS_IdSaIdEESaIS1_EERKS1_djE6SampleSaIS8_EE3endEv, symObjAddr: 0x8C38, symBinAddr: 0x1000093D0, symSize: 0x30 }
  - { offset: 0x32FAD, size: 0x8, addend: 0x0, symName: __ZNSt6vectorIZ8split_xyRKS_IS_IdSaIdEESaIS1_EERKS1_djE6SampleSaIS8_EE5beginEv, symObjAddr: 0x8C0C, symBinAddr: 0x1000093A4, symSize: 0x2C }
  - { offset: 0x33008, size: 0x8, addend: 0x0, symName: __Z16train_test_splitIZ8split_xyRKSt6vectorIS0_IdSaIdEESaIS2_EERKS2_djE6SampleESt4pairIS0_IT_SaISB_EESD_ERSD_dj, symObjAddr: 0x89EC, symBinAddr: 0x100009184, symSize: 0x220 }
  - { offset: 0x331B6, size: 0x8, addend: 0x0, symName: __ZNSt6vectorIZ8split_xyRKS_IS_IdSaIdEESaIS1_EERKS1_djE6SampleSaIS8_EEC1ERKSA_, symObjAddr: 0x88D8, symBinAddr: 0x100009070, symSize: 0x114 }
  - { offset: 0x332C9, size: 0x8, addend: 0x0, symName: __ZNSt6vectorIZ8split_xyRKS_IS_IdSaIdEESaIS1_EERKS1_djE6SampleSaIS8_EE9push_backEOS8_, symObjAddr: 0x88A4, symBinAddr: 0x10000903C, symSize: 0x34 }
  - { offset: 0x33350, size: 0x8, addend: 0x0, symName: __ZNSt6vectorIdSaIdEEC1ERKS1_, symObjAddr: 0x8790, symBinAddr: 0x100008F28, symSize: 0x114 }
  - { offset: 0x33463, size: 0x8, addend: 0x0, symName: __ZNSt6vectorIZ8split_xyRKS_IS_IdSaIdEESaIS1_EERKS1_djE6SampleSaIS8_EE7reserveEm, symObjAddr: 0x8654, symBinAddr: 0x100008DEC, symSize: 0x13C }
  - { offset: 0x334EA, size: 0x8, addend: 0x0, symName: __ZNSt6vectorIZ8split_xyRKS_IS_IdSaIdEESaIS1_EERKS1_djE6SampleSaIS8_EED1Ev, symObjAddr: 0x85F8, symBinAddr: 0x100008D90, symSize: 0x5C }
  - { offset: 0x33560, size: 0x8, addend: 0x0, symName: __ZNSt12_Vector_baseIZ8split_xyRKSt6vectorIS0_IdSaIdEESaIS2_EERKS2_djE6SampleSaIS9_EED2Ev, symObjAddr: 0x85A8, symBinAddr: 0x100008D40, symSize: 0x50 }
  - { offset: 0x335B6, size: 0x8, addend: 0x0, symName: __ZNSt12_Vector_baseIZ8split_xyRKSt6vectorIS0_IdSaIdEESaIS2_EERKS2_djE6SampleSaIS9_EE12_Vector_implC1Ev, symObjAddr: 0x8570, symBinAddr: 0x100008D08, symSize: 0x38 }
  - { offset: 0x3361E, size: 0x8, addend: 0x0, symName: __ZN3Log4infoIJRA4_KcmRA2_S1_RNSt7__cxx1112basic_stringIcSt11char_traitsIcESaIcEEEEEEvDpOT_, symObjAddr: 0x84F8, symBinAddr: 0x100008C90, symSize: 0x78 }
  - { offset: 0x33753, size: 0x8, addend: 0x0, symName: __ZNSt7__cxx1112basic_stringIcSt11char_traitsIcESaIcEEC1IS3_EEmcRKS3_, symObjAddr: 0x8484, symBinAddr: 0x100008C1C, symSize: 0x74 }
  - { offset: 0x33790, size: 0x8, addend: 0x0, symName: __ZN3Log4infoIJRA20_KcEEEvDpOT_, symObjAddr: 0x8448, symBinAddr: 0x100008BE0, symSize: 0x3C }
  - { offset: 0x337EA, size: 0x8, addend: 0x0, symName: __ZSt11max_elementIN9__gnu_cxx17__normal_iteratorIPKdSt6vectorIdSaIdEEEEET_S8_S8_, symObjAddr: 0x8414, symBinAddr: 0x100008BAC, symSize: 0x34 }
  - { offset: 0x3382E, size: 0x8, addend: 0x0, symName: __ZN3Log4infoIJRA6_KcmRA7_S1_EEEvDpOT_, symObjAddr: 0x83B0, symBinAddr: 0x100008B48, symSize: 0x64 }
  - { offset: 0x338EA, size: 0x8, addend: 0x0, symName: __ZN3Log4infoIJRA6_KcmRA12_S1_EEEvDpOT_, symObjAddr: 0x834C, symBinAddr: 0x100008AE4, symSize: 0x64 }
  - { offset: 0x339AA, size: 0x8, addend: 0x0, symName: __ZNSt6vectorIS_IdSaIdEESaIS1_EE9push_backEOS1_, symObjAddr: 0x8318, symBinAddr: 0x100008AB0, symSize: 0x34 }
  - { offset: 0x33A3F, size: 0x8, addend: 0x0, symName: __ZNSt6vectorIdSaIdEEC1ESt16initializer_listIdERKS0_, symObjAddr: 0x829C, symBinAddr: 0x100008A34, symSize: 0x7C }
  - { offset: 0x33A77, size: 0x8, addend: 0x0, symName: __ZNSt19normal_distributionIdEclISt23mersenne_twister_engineIjLm32ELm624ELm397ELm31ELj2567483615ELm11ELj4294967295ELm7ELj2636928640ELm15ELj4022730752ELm18ELj1812433253EEEEdRT_, symObjAddr: 0x8268, symBinAddr: 0x100008A00, symSize: 0x34 }
  - { offset: 0x33ABB, size: 0x8, addend: 0x0, symName: __ZNSt25uniform_real_distributionIdEclISt23mersenne_twister_engineIjLm32ELm624ELm397ELm31ELj2567483615ELm11ELj4294967295ELm7ELj2636928640ELm15ELj4022730752ELm18ELj1812433253EEEEdRT_, symObjAddr: 0x8234, symBinAddr: 0x1000089CC, symSize: 0x34 }
  - { offset: 0x33B35, size: 0x8, addend: 0x0, symName: __ZNSt19normal_distributionIdEC1Edd, symObjAddr: 0x81F4, symBinAddr: 0x10000898C, symSize: 0x40 }
  - { offset: 0x33BA3, size: 0x8, addend: 0x0, symName: __ZNSt25uniform_real_distributionIdEC1Edd, symObjAddr: 0x81C4, symBinAddr: 0x10000895C, symSize: 0x30 }
  - { offset: 0x33BDB, size: 0x8, addend: 0x0, symName: __ZNKSt6vectorIS_IdSaIdEESaIS1_EEixEm, symObjAddr: 0x8134, symBinAddr: 0x1000088CC, symSize: 0x90 }
  - { offset: 0x33C7F, size: 0x8, addend: 0x0, symName: __ZNSt4pairISt6vectorIS0_IdSaIdEESaIS2_EES2_EC1IRS4_RS2_Lb1EEEOT_OT0_, symObjAddr: 0x80CC, symBinAddr: 0x100008864, symSize: 0x68 }
  - { offset: 0x33D27, size: 0x8, addend: 0x0, symName: __ZNSt6vectorINSt7__cxx1112basic_stringIcSt11char_traitsIcESaIcEEESaIS5_EE3endEv, symObjAddr: 0x809C, symBinAddr: 0x100008834, symSize: 0x30 }
  - { offset: 0x33D7B, size: 0x8, addend: 0x0, symName: __ZNSt6vectorINSt7__cxx1112basic_stringIcSt11char_traitsIcESaIcEEESaIS5_EE5beginEv, symObjAddr: 0x8070, symBinAddr: 0x100008808, symSize: 0x2C }
  - { offset: 0x33DCF, size: 0x8, addend: 0x0, symName: __ZNSt6vectorINSt7__cxx1112basic_stringIcSt11char_traitsIcESaIcEEESaIS5_EE4backEv, symObjAddr: 0x7FD4, symBinAddr: 0x10000876C, symSize: 0x9C }
  - { offset: 0x33E75, size: 0x8, addend: 0x0, symName: __ZNSt6vectorIdSaIdEE9push_backEOd, symObjAddr: 0x7FA0, symBinAddr: 0x100008738, symSize: 0x34 }
  - { offset: 0x33ED4, size: 0x8, addend: 0x0, symName: __ZNSt6vectorINSt7__cxx1112basic_stringIcSt11char_traitsIcESaIcEEESaIS5_EEixEm, symObjAddr: 0x7F1C, symBinAddr: 0x1000086B4, symSize: 0x84 }
  - { offset: 0x33F2C, size: 0x8, addend: 0x0, symName: __ZNKSt6vectorINSt7__cxx1112basic_stringIcSt11char_traitsIcESaIcEEESaIS5_EE4sizeEv, symObjAddr: 0x7EDC, symBinAddr: 0x100008674, symSize: 0x40 }
  - { offset: 0x33F67, size: 0x8, addend: 0x0, symName: __ZNKSt6vectorINSt7__cxx1112basic_stringIcSt11char_traitsIcESaIcEEESaIS5_EE5emptyEv, symObjAddr: 0x7E84, symBinAddr: 0x10000861C, symSize: 0x58 }
  - { offset: 0x34000, size: 0x8, addend: 0x0, symName: __ZNKSt7__cxx1112basic_stringIcSt11char_traitsIcESaIcEE5emptyEv, symObjAddr: 0x7E60, symBinAddr: 0x1000085F8, symSize: 0x24 }
  - { offset: 0x34026, size: 0x8, addend: 0x0, symName: __ZStplIcSt11char_traitsIcESaIcEENSt7__cxx1112basic_stringIT_T0_T1_EEPKS5_RKS8_, symObjAddr: 0x7DB0, symBinAddr: 0x100008548, symSize: 0xB0 }
  - { offset: 0x340C8, size: 0x8, addend: 0x0, symName: __ZNSt6vectorIdSaIdEEaSEOS1_, symObjAddr: 0x7D74, symBinAddr: 0x10000850C, symSize: 0x3C }
  - { offset: 0x3415D, size: 0x8, addend: 0x0, symName: __ZNSt6vectorIS_IdSaIdEESaIS1_EEaSEOS3_, symObjAddr: 0x7D38, symBinAddr: 0x1000084D0, symSize: 0x3C }
  - { offset: 0x341F2, size: 0x8, addend: 0x0, symName: __ZNSt6vectorIdSaIdEE9push_backERKd, symObjAddr: 0x7C58, symBinAddr: 0x1000083F0, symSize: 0xE0 }
  - { offset: 0x342E2, size: 0x8, addend: 0x0, symName: __ZNKSt6vectorIdSaIdEE5emptyEv, symObjAddr: 0x7C00, symBinAddr: 0x100008398, symSize: 0x58 }
  - { offset: 0x3437B, size: 0x8, addend: 0x0, symName: __ZNSt6vectorIS_IdSaIdEESaIS1_EE9push_backERKS1_, symObjAddr: 0x7AE4, symBinAddr: 0x10000827C, symSize: 0x11C }
  - { offset: 0x34479, size: 0x8, addend: 0x0, symName: __ZNSt6vectorIdSaIdEE7reserveEm, symObjAddr: 0x79A8, symBinAddr: 0x100008140, symSize: 0x13C }
  - { offset: 0x344E6, size: 0x8, addend: 0x0, symName: __ZNSt6vectorIS_IdSaIdEESaIS1_EE7reserveEm, symObjAddr: 0x7844, symBinAddr: 0x100007FDC, symSize: 0x164 }
  - { offset: 0x3456D, size: 0x8, addend: 0x0, symName: __ZNSt12_Vector_baseIdSaIdEED2Ev, symObjAddr: 0x77F4, symBinAddr: 0x100007F8C, symSize: 0x50 }
  - { offset: 0x345AD, size: 0x8, addend: 0x0, symName: __ZNSt12_Vector_baseIdSaIdEE12_Vector_implC1Ev, symObjAddr: 0x77BC, symBinAddr: 0x100007F54, symSize: 0x38 }
  - { offset: 0x34633, size: 0x8, addend: 0x0, symName: __ZNSt12_Vector_baseISt6vectorIdSaIdEESaIS2_EE12_Vector_implC1Ev, symObjAddr: 0x7784, symBinAddr: 0x100007F1C, symSize: 0x38 }
  - { offset: 0x3469B, size: 0x8, addend: 0x0, symName: __ZSt7shuffleIN9__gnu_cxx17__normal_iteratorIPmSt6vectorImSaImEEEERSt23mersenne_twister_engineIjLm32ELm624ELm397ELm31ELj2567483615ELm11ELj4294967295ELm7ELj2636928640ELm15ELj4022730752ELm18ELj1812433253EEEvT_SA_OT0_, symObjAddr: 0x73C8, symBinAddr: 0x100007B60, symSize: 0x3BC }
  - { offset: 0x34DF8, size: 0x8, addend: 0x0, symName: __ZNSt23mersenne_twister_engineIjLm32ELm624ELm397ELm31ELj2567483615ELm11ELj4294967295ELm7ELj2636928640ELm15ELj4022730752ELm18ELj1812433253EE3minEv, symObjAddr: 0x73C0, symBinAddr: 0x100007B58, symSize: 0x8 }
  - { offset: 0x34E72, size: 0x8, addend: 0x0, symName: __ZNSt23mersenne_twister_engineIjLm32ELm624ELm397ELm31ELj2567483615ELm11ELj4294967295ELm7ELj2636928640ELm15ELj4022730752ELm18ELj1812433253EEC1Ej, symObjAddr: 0x7398, symBinAddr: 0x100007B30, symSize: 0x28 }
  - { offset: 0x34E9D, size: 0x8, addend: 0x0, symName: __ZSt4iotaIN9__gnu_cxx17__normal_iteratorIPmSt6vectorImSaImEEEEiEvT_S7_T0_, symObjAddr: 0x7314, symBinAddr: 0x100007AAC, symSize: 0x84 }
  - { offset: 0x34FAA, size: 0x8, addend: 0x0, symName: __ZNSt6vectorImSaImEE3endEv, symObjAddr: 0x72E4, symBinAddr: 0x100007A7C, symSize: 0x30 }
  - { offset: 0x34FFE, size: 0x8, addend: 0x0, symName: __ZNSt6vectorImSaImEE5beginEv, symObjAddr: 0x72B8, symBinAddr: 0x100007A50, symSize: 0x2C }
  - { offset: 0x3506C, size: 0x8, addend: 0x0, symName: __ZNSt6vectorImSaImEED1Ev, symObjAddr: 0x725C, symBinAddr: 0x1000079F4, symSize: 0x5C }
  - { offset: 0x350FE, size: 0x8, addend: 0x0, symName: __ZNSt6vectorImSaImEEC1EmRKS0_, symObjAddr: 0x71F4, symBinAddr: 0x10000798C, symSize: 0x68 }
  - { offset: 0x35162, size: 0x8, addend: 0x0, symName: __ZNKSt6vectorIS_IdSaIdEESaIS1_EE4sizeEv, symObjAddr: 0x71A8, symBinAddr: 0x100007940, symSize: 0x4C }
  - { offset: 0x3519D, size: 0x8, addend: 0x0, symName: __ZNSt6vectorINSt7__cxx1112basic_stringIcSt11char_traitsIcESaIcEEESaIS5_EE9push_backERKS5_, symObjAddr: 0x708C, symBinAddr: 0x100007824, symSize: 0x11C }
  - { offset: 0x352AB, size: 0x8, addend: 0x0, symName: __ZNSt6vectorINSt7__cxx1112basic_stringIcSt11char_traitsIcESaIcEEESaIS5_EED1Ev, symObjAddr: 0x7030, symBinAddr: 0x1000077C8, symSize: 0x5C }
  - { offset: 0x35321, size: 0x8, addend: 0x0, symName: __ZNSt12_Vector_baseINSt7__cxx1112basic_stringIcSt11char_traitsIcESaIcEEESaIS5_EED2Ev, symObjAddr: 0x6FE0, symBinAddr: 0x100007778, symSize: 0x50 }
  - { offset: 0x35377, size: 0x8, addend: 0x0, symName: __ZNSt12_Vector_baseINSt7__cxx1112basic_stringIcSt11char_traitsIcESaIcEEESaIS5_EE12_Vector_implC1Ev, symObjAddr: 0x6FA8, symBinAddr: 0x100007740, symSize: 0x38 }
  - { offset: 0x353DF, size: 0x8, addend: 0x0, symName: __ZN3Log4infoIJRKNSt7__cxx1112basic_stringIcSt11char_traitsIcESaIcEEEEEEvDpOT_, symObjAddr: 0x6F6C, symBinAddr: 0x100007704, symSize: 0x3C }
  - { offset: 0x3543D, size: 0x8, addend: 0x0, symName: __ZNKSt23_Rb_tree_const_iteratorISt4pairIKNSt7__cxx1112basic_stringIcSt11char_traitsIcESaIcEEES6_EEptEv, symObjAddr: 0x6F4C, symBinAddr: 0x1000076E4, symSize: 0x20 }
  - { offset: 0x35463, size: 0x8, addend: 0x0, symName: __ZN3Log6headerIJRKNSt7__cxx1112basic_stringIcSt11char_traitsIcESaIcEEEEEEvDpOT_, symObjAddr: 0x6F10, symBinAddr: 0x1000076A8, symSize: 0x3C }
  - { offset: 0x354BD, size: 0x8, addend: 0x0, symName: __ZN3Log4warnIJRA40_KcEEEvDpOT_, symObjAddr: 0x6ED4, symBinAddr: 0x10000766C, symSize: 0x3C }
  - { offset: 0x3551D, size: 0x8, addend: 0x0, symName: __ZSteqRKSt23_Rb_tree_const_iteratorISt4pairIKNSt7__cxx1112basic_stringIcSt11char_traitsIcESaIcEEES6_EESB_, symObjAddr: 0x6EA4, symBinAddr: 0x10000763C, symSize: 0x30 }
  - { offset: 0x3555C, size: 0x8, addend: 0x0, symName: __ZNKSt3mapINSt7__cxx1112basic_stringIcSt11char_traitsIcESaIcEEES5_St4lessIS5_ESaISt4pairIKS5_S5_EEE3endEv, symObjAddr: 0x6E88, symBinAddr: 0x100007620, symSize: 0x1C }
  - { offset: 0x35586, size: 0x8, addend: 0x0, symName: __ZNKSt3mapINSt7__cxx1112basic_stringIcSt11char_traitsIcESaIcEEES5_St4lessIS5_ESaISt4pairIKS5_S5_EEE4findERS9_, symObjAddr: 0x6E64, symBinAddr: 0x1000075FC, symSize: 0x24 }
  - { offset: 0x355DB, size: 0x8, addend: 0x0, symName: __ZNSt8_Rb_treeINSt7__cxx1112basic_stringIcSt11char_traitsIcESaIcEEESt4pairIKS5_S5_ESt10_Select1stIS8_ESt4lessIS5_ESaIS8_EED1Ev, symObjAddr: 0x6E30, symBinAddr: 0x1000075C8, symSize: 0x34 }
  - { offset: 0x3561F, size: 0x8, addend: 0x0, symName: __ZNSt8_Rb_treeINSt7__cxx1112basic_stringIcSt11char_traitsIcESaIcEEESt4pairIKS5_S5_ESt10_Select1stIS8_ESt4lessIS5_ESaIS8_EE13_Rb_tree_implISC_Lb1EED1Ev, symObjAddr: 0x6E04, symBinAddr: 0x10000759C, symSize: 0x2C }
  - { offset: 0x356AA, size: 0x8, addend: 0x0, symName: __ZNSt3mapINSt7__cxx1112basic_stringIcSt11char_traitsIcESaIcEEES5_St4lessIS5_ESaISt4pairIKS5_S5_EEEC1ESt16initializer_listISA_ERKS7_RKSB_, symObjAddr: 0x6D44, symBinAddr: 0x1000074DC, symSize: 0xC0 }
  - { offset: 0x35A8B, size: 0x8, addend: 0x0, symName: __ZN3Log4infoIJRA54_KcEEEvDpOT_, symObjAddr: 0x6D08, symBinAddr: 0x1000074A0, symSize: 0x3C }
  - { offset: 0x35AE5, size: 0x8, addend: 0x0, symName: __ZN3Log4infoIJRA51_KcEEEvDpOT_, symObjAddr: 0x6CCC, symBinAddr: 0x100007464, symSize: 0x3C }
  - { offset: 0x35B3F, size: 0x8, addend: 0x0, symName: __ZN3Log4infoIJRA46_KcEEEvDpOT_, symObjAddr: 0x6C90, symBinAddr: 0x100007428, symSize: 0x3C }
  - { offset: 0x35B99, size: 0x8, addend: 0x0, symName: __ZN3Log4infoIJRA66_KcEEEvDpOT_, symObjAddr: 0x6C54, symBinAddr: 0x1000073EC, symSize: 0x3C }
  - { offset: 0x35BF3, size: 0x8, addend: 0x0, symName: __ZN3Log6headerIJRA16_KcEEEvDpOT_, symObjAddr: 0x6C18, symBinAddr: 0x1000073B0, symSize: 0x3C }
  - { offset: 0x35C51, size: 0x8, addend: 0x0, symName: __ZNKSt6vectorIeSaIeEE3endEv, symObjAddr: 0x6BE8, symBinAddr: 0x100007380, symSize: 0x30 }
  - { offset: 0x35CA5, size: 0x8, addend: 0x0, symName: __ZNKSt6vectorIeSaIeEE5beginEv, symObjAddr: 0x6BBC, symBinAddr: 0x100007354, symSize: 0x2C }
  - { offset: 0x35D21, size: 0x8, addend: 0x0, symName: __ZNSt6vectorIeSaIeEEC1ERKS1_, symObjAddr: 0x6AA8, symBinAddr: 0x100007240, symSize: 0x114 }
  - { offset: 0x35E4E, size: 0x8, addend: 0x0, symName: __ZNSt12_Vector_baseISt6vectorIeSaIeEESaIS2_EED2Ev, symObjAddr: 0x6A4C, symBinAddr: 0x1000071E4, symSize: 0x5C }
  - { offset: 0x35E74, size: 0x8, addend: 0x0, symName: __ZNSt6vectorIS_IeSaIeEESaIS1_EEixEm, symObjAddr: 0x69BC, symBinAddr: 0x100007154, symSize: 0x90 }
  - { offset: 0x35F0E, size: 0x8, addend: 0x0, symName: __ZNSt6vectorIS_IeSaIeEESaIS1_EEC1EmRKS1_RKS2_, symObjAddr: 0x694C, symBinAddr: 0x1000070E4, symSize: 0x70 }
  - { offset: 0x35F95, size: 0x8, addend: 0x0, symName: __ZNSt12_Vector_baseIeSaIeEED2Ev, symObjAddr: 0x68FC, symBinAddr: 0x100007094, symSize: 0x50 }
  - { offset: 0x35FBB, size: 0x8, addend: 0x0, symName: __ZNKSt6vectorIS_IeSaIeEESaIS1_EE4sizeEv, symObjAddr: 0x68B0, symBinAddr: 0x100007048, symSize: 0x4C }
  - { offset: 0x35FF6, size: 0x8, addend: 0x0, symName: __ZNSt6vectorIeSaIeEEixEm, symObjAddr: 0x682C, symBinAddr: 0x100006FC4, symSize: 0x84 }
  - { offset: 0x36066, size: 0x8, addend: 0x0, symName: __ZNSt6vectorIeSaIeEED1Ev, symObjAddr: 0x67D0, symBinAddr: 0x100006F68, symSize: 0x5C }
  - { offset: 0x36106, size: 0x8, addend: 0x0, symName: __ZNSt6vectorIeSaIeEEC1EmRKeRKS0_, symObjAddr: 0x6760, symBinAddr: 0x100006EF8, symSize: 0x70 }
  - { offset: 0x36173, size: 0x8, addend: 0x0, symName: __ZNKSt6vectorIeSaIeEE4sizeEv, symObjAddr: 0x6720, symBinAddr: 0x100006EB8, symSize: 0x40 }
  - { offset: 0x361AA, size: 0x8, addend: 0x0, symName: __ZN3Log6headerIJRA18_KcEEEvDpOT_, symObjAddr: 0x66E4, symBinAddr: 0x100006E7C, symSize: 0x3C }
  - { offset: 0x36204, size: 0x8, addend: 0x0, symName: __ZN3Log4infoIJNSt7__cxx1112basic_stringIcSt11char_traitsIcESaIcEEEEEEvDpOT_, symObjAddr: 0x66A8, symBinAddr: 0x100006E40, symSize: 0x3C }
  - { offset: 0x3627E, size: 0x8, addend: 0x0, symName: __ZNSt6vectorIdSaIdEE3endEv, symObjAddr: 0x6678, symBinAddr: 0x100006E10, symSize: 0x30 }
  - { offset: 0x362D2, size: 0x8, addend: 0x0, symName: __ZNSt6vectorIdSaIdEE5beginEv, symObjAddr: 0x664C, symBinAddr: 0x100006DE4, symSize: 0x2C }
  - { offset: 0x36322, size: 0x8, addend: 0x0, symName: __ZN3Log6metricIJdEEEvRKNSt7__cxx1112basic_stringIcSt11char_traitsIcESaIcEEEDpOT_, symObjAddr: 0x6598, symBinAddr: 0x100006D30, symSize: 0xB4 }
  - { offset: 0x3638C, size: 0x8, addend: 0x0, symName: __ZN3Log6headerIJRA22_KcEEEvDpOT_, symObjAddr: 0x655C, symBinAddr: 0x100006CF4, symSize: 0x3C }
  - { offset: 0x3641A, size: 0x8, addend: 0x0, symName: __ZNSt12_Vector_baseISt6vectorIdSaIdEESaIS2_EED2Ev, symObjAddr: 0x6500, symBinAddr: 0x100006C98, symSize: 0x5C }
  - { offset: 0x36440, size: 0x8, addend: 0x0, symName: __ZNSt6vectorIS_IdSaIdEESaIS1_EEixEm, symObjAddr: 0x6470, symBinAddr: 0x100006C08, symSize: 0x90 }
  - { offset: 0x364B0, size: 0x8, addend: 0x0, symName: __ZNSt6vectorIS_IdSaIdEESaIS1_EED1Ev, symObjAddr: 0x6414, symBinAddr: 0x100006BAC, symSize: 0x5C }
  - { offset: 0x36550, size: 0x8, addend: 0x0, symName: __ZNSt6vectorIS_IdSaIdEESaIS1_EEC1EmRKS1_RKS2_, symObjAddr: 0x63A4, symBinAddr: 0x100006B3C, symSize: 0x70 }
  - { offset: 0x36601, size: 0x8, addend: 0x0, symName: __ZNSt6vectorIdSaIdEEC1EmRKdRKS0_, symObjAddr: 0x6334, symBinAddr: 0x100006ACC, symSize: 0x70 }
  - { offset: 0x36642, size: 0x8, addend: 0x0, symName: __ZNSt6vectorIdSaIdEEixEm, symObjAddr: 0x62B0, symBinAddr: 0x100006A48, symSize: 0x84 }
  - { offset: 0x366B2, size: 0x8, addend: 0x0, symName: __ZNSt6vectorIdSaIdEED1Ev, symObjAddr: 0x6254, symBinAddr: 0x1000069EC, symSize: 0x5C }
  - { offset: 0x3673A, size: 0x8, addend: 0x0, symName: __ZNKSt6vectorIdSaIdEE3endEv, symObjAddr: 0x6224, symBinAddr: 0x1000069BC, symSize: 0x30 }
  - { offset: 0x3678E, size: 0x8, addend: 0x0, symName: __ZNKSt6vectorIdSaIdEE5beginEv, symObjAddr: 0x61F8, symBinAddr: 0x100006990, symSize: 0x2C }
  - { offset: 0x367E2, size: 0x8, addend: 0x0, symName: __ZNKSt6vectorIdSaIdEEixEm, symObjAddr: 0x6174, symBinAddr: 0x10000690C, symSize: 0x84 }
  - { offset: 0x36838, size: 0x8, addend: 0x0, symName: __ZNKSt6vectorIdSaIdEE4sizeEv, symObjAddr: 0x6134, symBinAddr: 0x1000068CC, symSize: 0x40 }
  - { offset: 0x368BA, size: 0x8, addend: 0x0, symName: __ZNSt7__cxx1112basic_stringIcSt11char_traitsIcESaIcEEC1IS3_EEPKcRKS3_, symObjAddr: 0x6098, symBinAddr: 0x100006830, symSize: 0x9C }
  - { offset: 0x36973, size: 0x8, addend: 0x0, symName: __ZNSt7__cxx1112basic_stringIcSt11char_traitsIcESaIcEEC1EOS4_, symObjAddr: 0x5F8C, symBinAddr: 0x100006724, symSize: 0x10C }
  - { offset: 0x36A28, size: 0x8, addend: 0x0, symName: __ZNSt7__cxx1112basic_stringIcSt11char_traitsIcESaIcEED1Ev, symObjAddr: 0x5F64, symBinAddr: 0x1000066FC, symSize: 0x28 }
  - { offset: 0x36A68, size: 0x8, addend: 0x0, symName: __ZNSt7__cxx1112basic_stringIcSt11char_traitsIcESaIcEEC1Ev, symObjAddr: 0x5EF0, symBinAddr: 0x100006688, symSize: 0x74 }
  - { offset: 0x36B34, size: 0x8, addend: 0x0, symName: __ZNSt7__cxx1112basic_stringIcSt11char_traitsIcESaIcEE12_Alloc_hiderD1Ev, symObjAddr: 0x5EC4, symBinAddr: 0x10000665C, symSize: 0x2C }
  - { offset: 0x36B95, size: 0x8, addend: 0x0, symName: __ZN9__gnu_cxx6__stoaIddcJEEET0_PFT_PKT1_PPS3_DpT2_EPKcS5_PmS9_, symObjAddr: 0x5DB8, symBinAddr: 0x100006550, symSize: 0x10C }
  - { offset: 0x36CBE, size: 0x8, addend: 0x0, symName: __ZZN9__gnu_cxx6__stoaIddcJEEET0_PFT_PKT1_PPS3_DpT2_EPKcS5_PmS9_EN11_Save_errnoC1Ev, symObjAddr: 0x5D20, symBinAddr: 0x1000064B8, symSize: 0x30 }
  - { offset: 0x36CE8, size: 0x8, addend: 0x0, symName: __ZZN9__gnu_cxx6__stoaIddcJEEET0_PFT_PKT1_PPS3_DpT2_EPKcS5_PmS9_EN11_Save_errnoD1Ev, symObjAddr: 0x5D50, symBinAddr: 0x1000064E8, symSize: 0x50 }
  - { offset: 0x36D2F, size: 0x8, addend: 0x0, symName: __ZZN9__gnu_cxx6__stoaIddcJEEET0_PFT_PKT1_PPS3_DpT2_EPKcS5_PmS9_EN10_Range_chk6_S_chkEdSt17integral_constantIbLb0EE, symObjAddr: 0x5DA0, symBinAddr: 0x100006538, symSize: 0x18 }
  - { offset: 0x36D8B, size: 0x8, addend: 0x0, symName: __ZNKSt7__cxx1112basic_stringIcSt11char_traitsIcESaIcEE5c_strEv, symObjAddr: 0x5D04, symBinAddr: 0x10000649C, symSize: 0x1C }
  - { offset: 0x36DB1, size: 0x8, addend: 0x0, symName: __ZN9__gnu_cxx11char_traitsIcE6lengthEPKc, symObjAddr: 0x5CAC, symBinAddr: 0x100006444, symSize: 0x58 }
  - { offset: 0x36DF1, size: 0x8, addend: 0x0, symName: _main, symObjAddr: 0x560C, symBinAddr: 0x100005DA4, symSize: 0x6A0 }
  - { offset: 0x3709F, size: 0x8, addend: 0x0, symName: __ZNSt10_Head_baseILm3ESt6vectorIdSaIdEELb0EE7_M_headERS3_, symObjAddr: 0x55F8, symBinAddr: 0x100005D90, symSize: 0x14 }
  - { offset: 0x370C8, size: 0x8, addend: 0x0, symName: __ZNSt11_Tuple_implILm3EJSt6vectorIdSaIdEEEE7_M_headERS3_, symObjAddr: 0x55DC, symBinAddr: 0x100005D74, symSize: 0x1C }
  - { offset: 0x370F2, size: 0x8, addend: 0x0, symName: __ZSt12__get_helperILm3ESt6vectorIdSaIdEEJEERT0_RSt11_Tuple_implIXT_EJS3_DpT1_EE, symObjAddr: 0x55C0, symBinAddr: 0x100005D58, symSize: 0x1C }
  - { offset: 0x3713B, size: 0x8, addend: 0x0, symName: __ZSt3getILm3EJSt6vectorIS0_IdSaIdEESaIS2_EES4_S2_S2_EEONSt13tuple_elementIXT_ESt5tupleIJDpT0_EEE4typeEOS9_, symObjAddr: 0x559C, symBinAddr: 0x100005D34, symSize: 0x24 }
  - { offset: 0x371D1, size: 0x8, addend: 0x0, symName: __ZNSt10_Head_baseILm2ESt6vectorIdSaIdEELb0EE7_M_headERS3_, symObjAddr: 0x5588, symBinAddr: 0x100005D20, symSize: 0x14 }
  - { offset: 0x371FA, size: 0x8, addend: 0x0, symName: __ZNSt11_Tuple_implILm2EJSt6vectorIdSaIdEES2_EE7_M_headERS3_, symObjAddr: 0x5568, symBinAddr: 0x100005D00, symSize: 0x20 }
  - { offset: 0x37224, size: 0x8, addend: 0x0, symName: __ZSt12__get_helperILm2ESt6vectorIdSaIdEEJS2_EERT0_RSt11_Tuple_implIXT_EJS3_DpT1_EE, symObjAddr: 0x554C, symBinAddr: 0x100005CE4, symSize: 0x1C }
  - { offset: 0x37273, size: 0x8, addend: 0x0, symName: __ZSt3getILm2EJSt6vectorIS0_IdSaIdEESaIS2_EES4_S2_S2_EEONSt13tuple_elementIXT_ESt5tupleIJDpT0_EEE4typeEOS9_, symObjAddr: 0x5528, symBinAddr: 0x100005CC0, symSize: 0x24 }
  - { offset: 0x372E5, size: 0x8, addend: 0x0, symName: __ZNSt10_Head_baseILm1ESt6vectorIS0_IdSaIdEESaIS2_EELb0EE7_M_headERS5_, symObjAddr: 0x5514, symBinAddr: 0x100005CAC, symSize: 0x14 }
  - { offset: 0x3730E, size: 0x8, addend: 0x0, symName: __ZNSt11_Tuple_implILm1EJSt6vectorIS0_IdSaIdEESaIS2_EES2_S2_EE7_M_headERS5_, symObjAddr: 0x54F4, symBinAddr: 0x100005C8C, symSize: 0x20 }
  - { offset: 0x37338, size: 0x8, addend: 0x0, symName: __ZSt12__get_helperILm1ESt6vectorIS0_IdSaIdEESaIS2_EEJS2_S2_EERT0_RSt11_Tuple_implIXT_EJS5_DpT1_EE, symObjAddr: 0x54D8, symBinAddr: 0x100005C70, symSize: 0x1C }
  - { offset: 0x3738C, size: 0x8, addend: 0x0, symName: __ZSt3getILm1EJSt6vectorIS0_IdSaIdEESaIS2_EES4_S2_S2_EEONSt13tuple_elementIXT_ESt5tupleIJDpT0_EEE4typeEOS9_, symObjAddr: 0x54B4, symBinAddr: 0x100005C4C, symSize: 0x24 }
  - { offset: 0x37422, size: 0x8, addend: 0x0, symName: __ZNSt10_Head_baseILm0ESt6vectorIS0_IdSaIdEESaIS2_EELb0EE7_M_headERS5_, symObjAddr: 0x54A0, symBinAddr: 0x100005C38, symSize: 0x14 }
  - { offset: 0x3744B, size: 0x8, addend: 0x0, symName: __ZNSt11_Tuple_implILm0EJSt6vectorIS0_IdSaIdEESaIS2_EES4_S2_S2_EE7_M_headERS5_, symObjAddr: 0x5480, symBinAddr: 0x100005C18, symSize: 0x20 }
  - { offset: 0x37475, size: 0x8, addend: 0x0, symName: __ZSt12__get_helperILm0ESt6vectorIS0_IdSaIdEESaIS2_EEJS4_S2_S2_EERT0_RSt11_Tuple_implIXT_EJS5_DpT1_EE, symObjAddr: 0x5464, symBinAddr: 0x100005BFC, symSize: 0x1C }
  - { offset: 0x374CE, size: 0x8, addend: 0x0, symName: __ZSt3getILm0EJSt6vectorIS0_IdSaIdEESaIS2_EES4_S2_S2_EEONSt13tuple_elementIXT_ESt5tupleIJDpT0_EEE4typeEOS9_, symObjAddr: 0x5440, symBinAddr: 0x100005BD8, symSize: 0x24 }
  - { offset: 0x375C0, size: 0x8, addend: 0x0, symName: __ZNSt6vectorImSaImEEC1Ev, symObjAddr: 0x5420, symBinAddr: 0x100005BB8, symSize: 0x20 }
  - { offset: 0x37600, size: 0x8, addend: 0x0, symName: __ZNSt12_Vector_baseImSaImEEC2Ev, symObjAddr: 0x5400, symBinAddr: 0x100005B98, symSize: 0x20 }
  - { offset: 0x37643, size: 0x8, addend: 0x0, symName: __ZNSt12_Vector_baseImSaImEE12_Vector_implD1Ev, symObjAddr: 0x53D4, symBinAddr: 0x100005B6C, symSize: 0x2C }
  - { offset: 0x3768C, size: 0x8, addend: 0x0, symName: __ZN16LinearRegression7predictERKSt6vectorIS0_IdSaIdEESaIS2_EE, symObjAddr: 0x51B8, symBinAddr: 0x100005950, symSize: 0x21C }
  - { offset: 0x37845, size: 0x8, addend: 0x0, symName: __ZN16LinearRegression3fitERKSt6vectorIS0_IdSaIdEESaIS2_EERKS2_mb, symObjAddr: 0x4C74, symBinAddr: 0x10000540C, symSize: 0x544 }
  - { offset: 0x379AE, size: 0x8, addend: 0x0, symName: __ZZN16LinearRegression3fitERKSt6vectorIS0_IdSaIdEESaIS2_EERKS2_mbENKUlS6_PKmSA_RK12LinearParamsRSB_E_clES6_SA_SA_SD_SE_, symObjAddr: 0x4BF4, symBinAddr: 0x10000538C, symSize: 0x60 }
  - { offset: 0x37BEA, size: 0x8, addend: 0x0, symName: __ZNSt8functionIFvRKSt6vectorIS0_IdSaIdEESaIS2_EEPKmS8_RK12LinearParamsRS9_EED1Ev, symObjAddr: 0x4C54, symBinAddr: 0x1000053EC, symSize: 0x20 }
  - { offset: 0x37C10, size: 0x8, addend: 0x0, symName: __ZN16LinearRegression17compute_gradientsERKSt6vectorIS0_IdSaIdEESaIS2_EERKS2_PKmSA_RK12LinearParamsRSB_, symObjAddr: 0x4978, symBinAddr: 0x100005110, symSize: 0x27C }
  - { offset: 0x37E35, size: 0x8, addend: 0x0, symName: __ZN16LinearRegression4docsEv, symObjAddr: 0x4918, symBinAddr: 0x1000050B0, symSize: 0x60 }
  - { offset: 0x37E6B, size: 0x8, addend: 0x0, symName: __ZN16LinearRegressionD1Ev, symObjAddr: 0x489C, symBinAddr: 0x100005034, symSize: 0x7C }
  - { offset: 0x37EAE, size: 0x8, addend: 0x0, symName: __ZN15GradientDescentI12LinearParamsSt6vectorIS1_IdSaIdEESaIS3_EEED0Ev, symObjAddr: 0x4874, symBinAddr: 0x10000500C, symSize: 0x28 }
  - { offset: 0x37ED8, size: 0x8, addend: 0x0, symName: __ZN15GradientDescentI12LinearParamsSt6vectorIS1_IdSaIdEESaIS3_EEED1Ev, symObjAddr: 0x4834, symBinAddr: 0x100004FCC, symSize: 0x40 }
  - { offset: 0x37F18, size: 0x8, addend: 0x0, symName: __ZN9OptimizerI12LinearParamsSt6vectorIS1_IdSaIdEESaIS3_EEED2Ev, symObjAddr: 0x480C, symBinAddr: 0x100004FA4, symSize: 0x28 }
  - { offset: 0x37F8C, size: 0x8, addend: 0x0, symName: __ZN16LinearRegressionC1EN15GradientDescentI12LinearParamsSt6vectorIS2_IdSaIdEESaIS4_EEE4TypeEdmd, symObjAddr: 0x46B4, symBinAddr: 0x100004E4C, symSize: 0x158 }
  - { offset: 0x37FE9, size: 0x8, addend: 0x0, symName: __ZN14StandardScaleraSEOS_, symObjAddr: 0x4678, symBinAddr: 0x100004E10, symSize: 0x3C }
  - { offset: 0x38039, size: 0x8, addend: 0x0, symName: __ZN14StandardScalerD1Ev, symObjAddr: 0x464C, symBinAddr: 0x100004DE4, symSize: 0x2C }
  - { offset: 0x3807C, size: 0x8, addend: 0x0, symName: __ZN14StandardScalerC1Ev, symObjAddr: 0x4620, symBinAddr: 0x100004DB8, symSize: 0x2C }
  - { offset: 0x380BC, size: 0x8, addend: 0x0, symName: __ZNSt6vectorIeSaIeEEC1Ev, symObjAddr: 0x4600, symBinAddr: 0x100004D98, symSize: 0x20 }
  - { offset: 0x380FC, size: 0x8, addend: 0x0, symName: __ZNSt12_Vector_baseIeSaIeEEC2Ev, symObjAddr: 0x45E0, symBinAddr: 0x100004D78, symSize: 0x20 }
  - { offset: 0x3811E, size: 0x8, addend: 0x0, symName: __ZN12_GLOBAL__N_1L19log_epoch_milestoneEmmb, symObjAddr: 0x4528, symBinAddr: 0x100004CC0, symSize: 0xB8 }
  - { offset: 0x38177, size: 0x8, addend: 0x0, symName: __ZSt3maxImERKT_S2_S2_, symObjAddr: 0x44F0, symBinAddr: 0x100004C88, symSize: 0x38 }
  - { offset: 0x381C6, size: 0x8, addend: 0x0, symName: __ZmldRK12LinearParams, symObjAddr: 0x44B8, symBinAddr: 0x100004C50, symSize: 0x38 }
  - { offset: 0x38203, size: 0x8, addend: 0x0, symName: __ZN12LinearParams4zeroEv, symObjAddr: 0x4414, symBinAddr: 0x100004BAC, symSize: 0xA4 }
  - { offset: 0x3830F, size: 0x8, addend: 0x0, symName: __ZNK12LinearParamsplERKS_, symObjAddr: 0x4324, symBinAddr: 0x100004ABC, symSize: 0xF0 }
  - { offset: 0x3837C, size: 0x8, addend: 0x0, symName: __ZNK12LinearParamsdvEd, symObjAddr: 0x4244, symBinAddr: 0x1000049DC, symSize: 0xE0 }
  - { offset: 0x383E9, size: 0x8, addend: 0x0, symName: __ZNK12LinearParamsmlEd, symObjAddr: 0x4164, symBinAddr: 0x1000048FC, symSize: 0xE0 }
  - { offset: 0x38456, size: 0x8, addend: 0x0, symName: __ZNK12LinearParamsmiERKS_, symObjAddr: 0x4074, symBinAddr: 0x10000480C, symSize: 0xF0 }
  - { offset: 0x384E2, size: 0x8, addend: 0x0, symName: __ZNSt6vectorIdSaIdEEC1EOS1_, symObjAddr: 0x404C, symBinAddr: 0x1000047E4, symSize: 0x28 }
  - { offset: 0x38530, size: 0x8, addend: 0x0, symName: __ZNSt12_Vector_baseIdSaIdEEC2EOS1_, symObjAddr: 0x4024, symBinAddr: 0x1000047BC, symSize: 0x28 }
  - { offset: 0x3857C, size: 0x8, addend: 0x0, symName: __ZN12LinearParamsD1Ev, symObjAddr: 0x4004, symBinAddr: 0x10000479C, symSize: 0x20 }
  - { offset: 0x385BF, size: 0x8, addend: 0x0, symName: __ZN12LinearParamsC1Ev, symObjAddr: 0x3FD0, symBinAddr: 0x100004768, symSize: 0x34 }
  - { offset: 0x385E1, size: 0x8, addend: 0x0, symName: __ZSt3minImERKT_S2_S2_, symObjAddr: 0x3F98, symBinAddr: 0x100004730, symSize: 0x38 }
  - { offset: 0x38627, size: 0x8, addend: 0x0, symName: __ZNKSt14_Function_base8_M_emptyEv, symObjAddr: 0x3F74, symBinAddr: 0x10000470C, symSize: 0x24 }
  - { offset: 0x3866B, size: 0x8, addend: 0x0, symName: __ZNSt14_Function_baseD2Ev, symObjAddr: 0x3F34, symBinAddr: 0x1000046CC, symSize: 0x40 }
  - { offset: 0x38695, size: 0x8, addend: 0x0, symName: __ZNKSt9_Any_data9_M_accessEv, symObjAddr: 0x3F20, symBinAddr: 0x1000046B8, symSize: 0x14 }
  - { offset: 0x386C3, size: 0x8, addend: 0x0, symName: __ZNSt9_Any_data9_M_accessEv, symObjAddr: 0x3F0C, symBinAddr: 0x1000046A4, symSize: 0x14 }
  - { offset: 0x3870B, size: 0x8, addend: 0x0, symName: __ZNSt5tupleIJSt6vectorIS0_IdSaIdEESaIS2_EES4_S2_S2_EED1Ev, symObjAddr: 0x3BC0, symBinAddr: 0x100004358, symSize: 0x20 }
  - { offset: 0x3874F, size: 0x8, addend: 0x0, symName: __ZNSt11_Tuple_implILm0EJSt6vectorIS0_IdSaIdEESaIS2_EES4_S2_S2_EED2Ev, symObjAddr: 0x3B94, symBinAddr: 0x10000432C, symSize: 0x2C }
  - { offset: 0x38792, size: 0x8, addend: 0x0, symName: __ZNSt10_Head_baseILm0ESt6vectorIS0_IdSaIdEESaIS2_EELb0EED2Ev, symObjAddr: 0x3B74, symBinAddr: 0x10000430C, symSize: 0x20 }
  - { offset: 0x387D6, size: 0x8, addend: 0x0, symName: __ZNSt11_Tuple_implILm1EJSt6vectorIS0_IdSaIdEESaIS2_EES2_S2_EED2Ev, symObjAddr: 0x3B48, symBinAddr: 0x1000042E0, symSize: 0x2C }
  - { offset: 0x38819, size: 0x8, addend: 0x0, symName: __ZNSt10_Head_baseILm1ESt6vectorIS0_IdSaIdEESaIS2_EELb0EED2Ev, symObjAddr: 0x3B28, symBinAddr: 0x1000042C0, symSize: 0x20 }
  - { offset: 0x3885D, size: 0x8, addend: 0x0, symName: __ZNSt11_Tuple_implILm2EJSt6vectorIdSaIdEES2_EED2Ev, symObjAddr: 0x3AFC, symBinAddr: 0x100004294, symSize: 0x2C }
  - { offset: 0x388A0, size: 0x8, addend: 0x0, symName: __ZNSt10_Head_baseILm2ESt6vectorIdSaIdEELb0EED2Ev, symObjAddr: 0x3ADC, symBinAddr: 0x100004274, symSize: 0x20 }
  - { offset: 0x388E4, size: 0x8, addend: 0x0, symName: __ZNSt11_Tuple_implILm3EJSt6vectorIdSaIdEEEED2Ev, symObjAddr: 0x3ABC, symBinAddr: 0x100004254, symSize: 0x20 }
  - { offset: 0x38927, size: 0x8, addend: 0x0, symName: __ZNSt10_Head_baseILm3ESt6vectorIdSaIdEELb0EED2Ev, symObjAddr: 0x3A9C, symBinAddr: 0x100004234, symSize: 0x20 }
  - { offset: 0x389CD, size: 0x8, addend: 0x0, symName: __ZNSt4pairISt6vectorIZ8split_xyRKS0_IS0_IdSaIdEESaIS2_EERKS2_djE6SampleSaIS9_EESB_ED1Ev, symObjAddr: 0x3A70, symBinAddr: 0x100004208, symSize: 0x2C }
  - { offset: 0x38A0D, size: 0x8, addend: 0x0, symName: __ZNSt6vectorIZ8split_xyRKS_IS_IdSaIdEESaIS1_EERKS1_djE6SampleSaIS8_EEC1Ev, symObjAddr: 0x3A30, symBinAddr: 0x1000041C8, symSize: 0x20 }
  - { offset: 0x38A4D, size: 0x8, addend: 0x0, symName: __ZNSt12_Vector_baseIZ8split_xyRKSt6vectorIS0_IdSaIdEESaIS2_EERKS2_djE6SampleSaIS9_EEC2Ev, symObjAddr: 0x3A10, symBinAddr: 0x1000041A8, symSize: 0x20 }
  - { offset: 0x38A90, size: 0x8, addend: 0x0, symName: __ZNSt12_Vector_baseIZ8split_xyRKSt6vectorIS0_IdSaIdEESaIS2_EERKS2_djE6SampleSaIS9_EE12_Vector_implD1Ev, symObjAddr: 0x39E4, symBinAddr: 0x10000417C, symSize: 0x2C }
  - { offset: 0x38ADC, size: 0x8, addend: 0x0, symName: __Z15print_loss_barsRKSt6vectorIdSaIdEE, symObjAddr: 0x384C, symBinAddr: 0x100003FE4, symSize: 0x198 }
  - { offset: 0x38C0F, size: 0x8, addend: 0x0, symName: __Z9print_vecRKSt6vectorIdSaIdEEi, symObjAddr: 0x36FC, symBinAddr: 0x100003E94, symSize: 0x150 }
  - { offset: 0x38C95, size: 0x8, addend: 0x0, symName: __Z12print_matrixRKSt6vectorIS_IdSaIdEESaIS1_EEi, symObjAddr: 0x3550, symBinAddr: 0x100003CE8, symSize: 0x1AC }
  - { offset: 0x38D3D, size: 0x8, addend: 0x0, symName: __Z14generate_moonsiid, symObjAddr: 0x3200, symBinAddr: 0x100003998, symSize: 0x350 }
  - { offset: 0x38F8C, size: 0x8, addend: 0x0, symName: __Z12generate_xoriid, symObjAddr: 0x309C, symBinAddr: 0x100003834, symSize: 0x164 }
  - { offset: 0x390A9, size: 0x8, addend: 0x0, symName: __ZZ12generate_xoriidENKUldddE_clEddd, symObjAddr: 0x2EEC, symBinAddr: 0x100003684, symSize: 0x1B0 }
  - { offset: 0x392B7, size: 0x8, addend: 0x0, symName: __Z27generate_linearly_separableii, symObjAddr: 0x2C40, symBinAddr: 0x1000033D8, symSize: 0x2AC }
  - { offset: 0x39485, size: 0x8, addend: 0x0, symName: __Z14generate_blobsiiid, symObjAddr: 0x2A20, symBinAddr: 0x1000031B8, symSize: 0x220 }
  - { offset: 0x39626, size: 0x8, addend: 0x0, symName: __Z8save_csvRKNSt7__cxx1112basic_stringIcSt11char_traitsIcESaIcEEERKSt6vectorIS7_IdSaIdEESaIS9_EERKS9_, symObjAddr: 0x27CC, symBinAddr: 0x100002F64, symSize: 0x254 }
  - { offset: 0x396D4, size: 0x8, addend: 0x0, symName: __Z8load_csvRKNSt7__cxx1112basic_stringIcSt11char_traitsIcESaIcEEEbb, symObjAddr: 0x23C8, symBinAddr: 0x100002B60, symSize: 0x404 }
  - { offset: 0x3992B, size: 0x8, addend: 0x0, symName: __ZN12_GLOBAL__N_1L15shuffle_datasetERSt6vectorIS0_IdSaIdEESaIS2_EERS2_i, symObjAddr: 0x2170, symBinAddr: 0x100002908, symSize: 0x258 }
  - { offset: 0x39C06, size: 0x8, addend: 0x0, symName: __ZNSt6vectorIdSaIdEEC1Ev, symObjAddr: 0x2150, symBinAddr: 0x1000028E8, symSize: 0x20 }
  - { offset: 0x39C46, size: 0x8, addend: 0x0, symName: __ZNSt12_Vector_baseIdSaIdEEC2Ev, symObjAddr: 0x2130, symBinAddr: 0x1000028C8, symSize: 0x20 }
  - { offset: 0x39C89, size: 0x8, addend: 0x0, symName: __ZNSt12_Vector_baseIdSaIdEE12_Vector_implD1Ev, symObjAddr: 0x2104, symBinAddr: 0x10000289C, symSize: 0x2C }
  - { offset: 0x39CEC, size: 0x8, addend: 0x0, symName: __ZNSt6vectorIS_IdSaIdEESaIS1_EEC1Ev, symObjAddr: 0x20E4, symBinAddr: 0x10000287C, symSize: 0x20 }
  - { offset: 0x39D2C, size: 0x8, addend: 0x0, symName: __ZNSt12_Vector_baseISt6vectorIdSaIdEESaIS2_EEC2Ev, symObjAddr: 0x20C4, symBinAddr: 0x10000285C, symSize: 0x20 }
  - { offset: 0x39D4E, size: 0x8, addend: 0x0, symName: __ZN12_GLOBAL__N_1L14split_csv_lineERKNSt7__cxx1112basic_stringIcSt11char_traitsIcESaIcEEE, symObjAddr: 0x1FEC, symBinAddr: 0x100002784, symSize: 0xD8 }
  - { offset: 0x39DC8, size: 0x8, addend: 0x0, symName: __ZNSt6vectorINSt7__cxx1112basic_stringIcSt11char_traitsIcESaIcEEESaIS5_EEC1Ev, symObjAddr: 0x1FCC, symBinAddr: 0x100002764, symSize: 0x20 }
  - { offset: 0x39E08, size: 0x8, addend: 0x0, symName: __ZNSt12_Vector_baseINSt7__cxx1112basic_stringIcSt11char_traitsIcESaIcEEESaIS5_EEC2Ev, symObjAddr: 0x1FAC, symBinAddr: 0x100002744, symSize: 0x20 }
  - { offset: 0x39E4B, size: 0x8, addend: 0x0, symName: __ZNSt12_Vector_baseINSt7__cxx1112basic_stringIcSt11char_traitsIcESaIcEEESaIS5_EE12_Vector_implD1Ev, symObjAddr: 0x1F80, symBinAddr: 0x100002718, symSize: 0x2C }
  - { offset: 0x39E98, size: 0x8, addend: 0x0, symName: __Z4docsRKNSt7__cxx1112basic_stringIcSt11char_traitsIcESaIcEEE, symObjAddr: 0x1BFC, symBinAddr: 0x100002394, symSize: 0x384 }
  - { offset: 0x39ECC, size: 0x8, addend: 0x0, symName: __ZZ4docsRKNSt7__cxx1112basic_stringIcSt11char_traitsIcESaIcEEEE5kDocs, symObjAddr: 0x116370, symBinAddr: 0x100030008, symSize: 0x0 }
  - { offset: 0x39F91, size: 0x8, addend: 0x0, symName: __ZNSt3mapINSt7__cxx1112basic_stringIcSt11char_traitsIcESaIcEEES5_St4lessIS5_ESaISt4pairIKS5_S5_EEED1Ev, symObjAddr: 0x1BDC, symBinAddr: 0x100002374, symSize: 0x20 }
  - { offset: 0x39FFF, size: 0x8, addend: 0x0, symName: __ZNSt4pairIKNSt7__cxx1112basic_stringIcSt11char_traitsIcESaIcEEES5_EC1IRA10_KcRA103_S9_Lb1EEEOT_OT0_, symObjAddr: 0x1B10, symBinAddr: 0x1000022A8, symSize: 0xCC }
  - { offset: 0x3A1E6, size: 0x8, addend: 0x0, symName: __ZNSt4pairIKNSt7__cxx1112basic_stringIcSt11char_traitsIcESaIcEEES5_EC1IRA11_KcRA97_S9_Lb1EEEOT_OT0_, symObjAddr: 0x1A44, symBinAddr: 0x1000021DC, symSize: 0xCC }
  - { offset: 0x3A3CD, size: 0x8, addend: 0x0, symName: __ZNSt4pairIKNSt7__cxx1112basic_stringIcSt11char_traitsIcESaIcEEES5_EC1IRA9_KcRA82_S9_Lb1EEEOT_OT0_, symObjAddr: 0x1978, symBinAddr: 0x100002110, symSize: 0xCC }
  - { offset: 0x3A5B4, size: 0x8, addend: 0x0, symName: __ZNSt4pairIKNSt7__cxx1112basic_stringIcSt11char_traitsIcESaIcEEES5_EC1IRA4_KcRA107_S9_Lb1EEEOT_OT0_, symObjAddr: 0x18AC, symBinAddr: 0x100002044, symSize: 0xCC }
  - { offset: 0x3A79B, size: 0x8, addend: 0x0, symName: __ZNSt4pairIKNSt7__cxx1112basic_stringIcSt11char_traitsIcESaIcEEES5_EC1IRA7_KcRA111_S9_Lb1EEEOT_OT0_, symObjAddr: 0x17E0, symBinAddr: 0x100001F78, symSize: 0xCC }
  - { offset: 0x3A982, size: 0x8, addend: 0x0, symName: __ZNSt4pairIKNSt7__cxx1112basic_stringIcSt11char_traitsIcESaIcEEES5_EC1IRA19_KcRA121_S9_Lb1EEEOT_OT0_, symObjAddr: 0x1714, symBinAddr: 0x100001EAC, symSize: 0xCC }
  - { offset: 0x3AB69, size: 0x8, addend: 0x0, symName: __ZNSt4pairIKNSt7__cxx1112basic_stringIcSt11char_traitsIcESaIcEEES5_EC1IRA15_KcRA121_S9_Lb1EEEOT_OT0_, symObjAddr: 0x1648, symBinAddr: 0x100001DE0, symSize: 0xCC }
  - { offset: 0x3AD50, size: 0x8, addend: 0x0, symName: __ZNSt4pairIKNSt7__cxx1112basic_stringIcSt11char_traitsIcESaIcEEES5_EC1IRA4_KcRA110_S9_Lb1EEEOT_OT0_, symObjAddr: 0x157C, symBinAddr: 0x100001D14, symSize: 0xCC }
  - { offset: 0x3AF37, size: 0x8, addend: 0x0, symName: __ZNSt4pairIKNSt7__cxx1112basic_stringIcSt11char_traitsIcESaIcEEES5_EC1IRA8_KcRA104_S9_Lb1EEEOT_OT0_, symObjAddr: 0x14B0, symBinAddr: 0x100001C48, symSize: 0xCC }
  - { offset: 0x3B11E, size: 0x8, addend: 0x0, symName: __ZNSt4pairIKNSt7__cxx1112basic_stringIcSt11char_traitsIcESaIcEEES5_EC1IRA7_KcRA120_S9_Lb1EEEOT_OT0_, symObjAddr: 0x13E4, symBinAddr: 0x100001B7C, symSize: 0xCC }
  - { offset: 0x3B305, size: 0x8, addend: 0x0, symName: __ZNSt4pairIKNSt7__cxx1112basic_stringIcSt11char_traitsIcESaIcEEES5_EC1IRA7_KcRA126_S9_Lb1EEEOT_OT0_, symObjAddr: 0x1318, symBinAddr: 0x100001AB0, symSize: 0xCC }
  - { offset: 0x3B4C2, size: 0x8, addend: 0x0, symName: __ZNSt4pairIKNSt7__cxx1112basic_stringIcSt11char_traitsIcESaIcEEES5_ED1Ev, symObjAddr: 0x12EC, symBinAddr: 0x100001A84, symSize: 0x2C }
  - { offset: 0x3B4EC, size: 0x8, addend: 0x0, symName: __Z4helpv, symObjAddr: 0x1288, symBinAddr: 0x100001A20, symSize: 0x64 }
  - { offset: 0x3B525, size: 0x8, addend: 0x0, symName: __Z6matinvSt6vectorIS_IeSaIeEESaIS1_EE, symObjAddr: 0xD58, symBinAddr: 0x1000014F0, symSize: 0x530 }
  - { offset: 0x3B851, size: 0x8, addend: 0x0, symName: __ZNSt12_Vector_baseISt6vectorIeSaIeEESaIS2_EE12_Vector_implD1Ev, symObjAddr: 0xD2C, symBinAddr: 0x1000014C4, symSize: 0x2C }
  - { offset: 0x3B8B7, size: 0x8, addend: 0x0, symName: __ZNSt12_Vector_baseIeSaIeEE12_Vector_implD1Ev, symObjAddr: 0xD00, symBinAddr: 0x100001498, symSize: 0x2C }
  - { offset: 0x3B907, size: 0x8, addend: 0x0, symName: __Z10custom_expe, symObjAddr: 0xC88, symBinAddr: 0x100001420, symSize: 0x78 }
  - { offset: 0x3B977, size: 0x8, addend: 0x0, symName: __ZNSt13random_deviceclEv, symObjAddr: 0xC6C, symBinAddr: 0x100001404, symSize: 0x1C }
  - { offset: 0x3B9BB, size: 0x8, addend: 0x0, symName: __ZNSt13random_deviceD1Ev, symObjAddr: 0xC4C, symBinAddr: 0x1000013E4, symSize: 0x20 }
  - { offset: 0x3B9FB, size: 0x8, addend: 0x0, symName: __ZNSt13random_deviceC1Ev, symObjAddr: 0xBB4, symBinAddr: 0x10000134C, symSize: 0x98 }
  - { offset: 0x3BAAA, size: 0x8, addend: 0x0, symName: __Z17regression_reportRKSt6vectorIdSaIdEES3_, symObjAddr: 0x9E8, symBinAddr: 0x100001180, symSize: 0x1CC }
  - { offset: 0x3BCDB, size: 0x8, addend: 0x0, symName: __Z8r2_scoreRKSt6vectorIdSaIdEES3_, symObjAddr: 0x81C, symBinAddr: 0x100000FB4, symSize: 0x1CC }
  - { offset: 0x3BED0, size: 0x8, addend: 0x0, symName: __Z3maeRKSt6vectorIdSaIdEES3_, symObjAddr: 0x768, symBinAddr: 0x100000F00, symSize: 0xB4 }
  - { offset: 0x3BF47, size: 0x8, addend: 0x0, symName: __Z4rmseRKSt6vectorIdSaIdEES3_, symObjAddr: 0x68C, symBinAddr: 0x100000E24, symSize: 0xDC }
  - { offset: 0x3BFD4, size: 0x8, addend: 0x0, symName: __ZNSt12_Vector_baseISt6vectorIdSaIdEESaIS2_EE12_Vector_implD1Ev, symObjAddr: 0x660, symBinAddr: 0x100000DF8, symSize: 0x2C }
  - { offset: 0x3C01D, size: 0x8, addend: 0x0, symName: __ZNSt15_Rb_tree_header8_M_resetEv, symObjAddr: 0x624, symBinAddr: 0x100000DBC, symSize: 0x3C }
  - { offset: 0x3C061, size: 0x8, addend: 0x0, symName: __ZNSt15_Rb_tree_headerC2Ev, symObjAddr: 0x5FC, symBinAddr: 0x100000D94, symSize: 0x28 }
  - { offset: 0x3C087, size: 0x8, addend: 0x0, symName: __ZNKSt18_Rb_tree_node_base11_M_base_ptrEv, symObjAddr: 0x5E8, symBinAddr: 0x100000D80, symSize: 0x14 }
  - { offset: 0x3C0AD, size: 0x8, addend: 0x0, symName: __ZN3Log7dividerEv, symObjAddr: 0x550, symBinAddr: 0x100000CE8, symSize: 0x98 }
  - { offset: 0x3C149, size: 0x8, addend: 0x0, symName: __ZN3Log6detail9print_rawEPKcRKNSt7__cxx1112basic_stringIcSt11char_traitsIcESaIcEEE, symObjAddr: 0x500, symBinAddr: 0x100000C98, symSize: 0x50 }
  - { offset: 0x3C182, size: 0x8, addend: 0x0, symName: __ZN3Log6detail11digit_countEi, symObjAddr: 0x494, symBinAddr: 0x100000C2C, symSize: 0x6C }
  - { offset: 0x3C1BB, size: 0x8, addend: 0x0, symName: __ZSt4setwi, symObjAddr: 0x480, symBinAddr: 0x100000C18, symSize: 0x14 }
  - { offset: 0x3C1E4, size: 0x8, addend: 0x0, symName: __ZSt12setprecisioni, symObjAddr: 0x46C, symBinAddr: 0x100000C04, symSize: 0x14 }
  - { offset: 0x3C20D, size: 0x8, addend: 0x0, symName: __ZSt5fixedRSt8ios_base, symObjAddr: 0x444, symBinAddr: 0x100000BDC, symSize: 0x28 }
  - { offset: 0x3C246, size: 0x8, addend: 0x0, symName: __ZNSt8ios_base4setfESt13_Ios_FmtflagsS0_, symObjAddr: 0x3E4, symBinAddr: 0x100000B7C, symSize: 0x60 }
  - { offset: 0x3C29F, size: 0x8, addend: 0x0, symName: __ZStorSt13_Ios_OpenmodeS_, symObjAddr: 0x3C4, symBinAddr: 0x100000B5C, symSize: 0x20 }
  - { offset: 0x3C2E4, size: 0x8, addend: 0x0, symName: __ZStaNRSt13_Ios_FmtflagsS_, symObjAddr: 0x38C, symBinAddr: 0x100000B24, symSize: 0x38 }
  - { offset: 0x3C31D, size: 0x8, addend: 0x0, symName: __ZStoRRSt13_Ios_FmtflagsS_, symObjAddr: 0x354, symBinAddr: 0x100000AEC, symSize: 0x38 }
  - { offset: 0x3C356, size: 0x8, addend: 0x0, symName: __ZStcoSt13_Ios_Fmtflags, symObjAddr: 0x33C, symBinAddr: 0x100000AD4, symSize: 0x18 }
  - { offset: 0x3C37F, size: 0x8, addend: 0x0, symName: __ZStorSt13_Ios_FmtflagsS_, symObjAddr: 0x31C, symBinAddr: 0x100000AB4, symSize: 0x20 }
  - { offset: 0x3C3B8, size: 0x8, addend: 0x0, symName: __ZStanSt13_Ios_FmtflagsS_, symObjAddr: 0x2FC, symBinAddr: 0x100000A94, symSize: 0x20 }
  - { offset: 0x3C3F1, size: 0x8, addend: 0x0, symName: __ZNSt7__cxx114stodERKNS_12basic_stringIcSt11char_traitsIcESaIcEEEPm, symObjAddr: 0x2B8, symBinAddr: 0x100000A50, symSize: 0x44 }
  - { offset: 0x3C433, size: 0x8, addend: 0x0, symName: __ZdlPvS_, symObjAddr: 0x2A0, symBinAddr: 0x100000A38, symSize: 0x18 }
  - { offset: 0x3C469, size: 0x8, addend: 0x0, symName: __ZnwmPv, symObjAddr: 0x288, symBinAddr: 0x100000A20, symSize: 0x18 }
  - { offset: 0x3C49B, size: 0x8, addend: 0x0, symName: __ZNSt11char_traitsIcE6assignEPcmc, symObjAddr: 0x23C, symBinAddr: 0x1000009D4, symSize: 0x4C }
  - { offset: 0x3C4E7, size: 0x8, addend: 0x0, symName: __ZNSt11char_traitsIcE4copyEPcPKcm, symObjAddr: 0x1E8, symBinAddr: 0x100000980, symSize: 0x54 }
  - { offset: 0x3C533, size: 0x8, addend: 0x0, symName: __ZNSt11char_traitsIcE6lengthEPKc, symObjAddr: 0x1AC, symBinAddr: 0x100000944, symSize: 0x3C }
  - { offset: 0x3C577, size: 0x8, addend: 0x0, symName: __ZNSt11char_traitsIcE7compareEPKcS2_m, symObjAddr: 0xBC, symBinAddr: 0x100000854, symSize: 0xF0 }
  - { offset: 0x3C601, size: 0x8, addend: 0x0, symName: __ZNSt11char_traitsIcE2ltERKcS2_, symObjAddr: 0x84, symBinAddr: 0x10000081C, symSize: 0x38 }
  - { offset: 0x3C63C, size: 0x8, addend: 0x0, symName: __ZNSt11char_traitsIcE6assignERcRKc, symObjAddr: 0x5C, symBinAddr: 0x1000007F4, symSize: 0x28 }
  - { offset: 0x3C677, size: 0x8, addend: 0x0, symName: __ZSt17__size_to_integerm, symObjAddr: 0x48, symBinAddr: 0x1000007E0, symSize: 0x14 }
  - { offset: 0x3C6A1, size: 0x8, addend: 0x0, symName: __ZN9__gnu_cxx5__ops16__iter_less_iterEv, symObjAddr: 0x40, symBinAddr: 0x1000007D8, symSize: 0x8 }
  - { offset: 0x3C6B9, size: 0x8, addend: 0x0, symName: __ZSt3loge, symObjAddr: 0x1C, symBinAddr: 0x1000007B4, symSize: 0x24 }
  - { offset: 0x3C6E3, size: 0x8, addend: 0x0, symName: __ZSt3absd, symObjAddr: 0x0, symBinAddr: 0x100000798, symSize: 0x1C }
...
